

Microchip Technology PIC LITE Macro Assembler V2.00 build -1524193055 
                                                                                               Sat Feb 15 08:54:59 2020

Microchip Technology Omniscient Code Generator v2.00 (Free mode) build 20180527130849
     1  0000                     
      + 0000                     
     2                           ; Version 2.00
     3                           ; Generated 27/05/2018 GMT
     4                           
     5                           ; 
     6                           ; Copyright © 2018, Microchip Technology Inc. and its subsidiaries ("Microchip")
     7                           ; All rights reserved.
     8                           ; 
     9                           ; This software is developed by Microchip Technology Inc. and its subsidiaries ("Microch
                                 ip").
    10                           ; 
    11                           ; Redistribution and use in source and binary forms, with or without modification, are
    12                           ; permitted provided that the following conditions are met:
    13                           ; 
    14                           ;     1. Redistributions of source code must retain the above copyright notice, this lis
                                 t of
    15                           ;        conditions and the following disclaimer.
    16                           ; 
    17                           ;     2. Redistributions in binary form must reproduce the above copyright notice, this 
                                 list
    18                           ;        of conditions and the following disclaimer in the documentation and/or other
    19                           ;        materials provided with the distribution.
    20                           ; 
    21                           ;     3. Microchip's name may not be used to endorse or promote products derived from th
                                 is
    22                           ;        software without specific prior written permission.
    23                           ; 
    24                           ; THIS SOFTWARE IS PROVIDED BY MICROCHIP "AS IS" AND ANY EXPRESS OR IMPLIED WARRANTIES,

    25                           ; INCLUDING, BUT NOT LIMITED TO, THE IMPLIED WARRANTIES OF MERCHANTABILITY AND FITNESS F
                                 OR
    26                           ; PURPOSE ARE DISCLAIMED.  IN NO EVENT SHALL MICROCHIP BE LIABLE FOR ANY DIRECT, INDIREC
                                 T,
    27                           ; INCIDENTAL, SPECIAL, EXEMPLARY, OR CONSEQUENTIAL DAMAGES (INCLUDING BUT NOT LIMITED TO
                                 
    28                           ; PROCUREMENT OF SUBSTITUTE GOODS OR SERVICES; LOSS OF USE, DATA OR PROFITS; OR BUSINESS
                                 
    29                           ; INTERRUPTION) HOWSOEVER CAUSED AND ON ANY THEORY OF LIABILITY, WHETHER IN CONTRACT, ST
                                 RICT
    30                           ; LIABILITY, OR TORT (INCLUDING NEGLIGENCE OR OTHERWISE) ARISING IN ANY WAY OUT OF THE U
                                 SE OF
    31                           ; THIS SOFTWARE, EVEN IF ADVISED OF THE POSSIBILITY OF SUCH DAMAGE.
    32                           ; 
    33                           
    34                           
    35                           ; 
    36                           ; Code-generator required, PIC16F887 Definitions
    37                           ; 
    38  0004                     fsr0 equ 04h
    39  0004                     indf equ 00h
    40  0000                     indf0 equ 00h
    41  0000                     pc equ 02h
    42  0002                     pcl equ 02h
    43  0002                     pclath equ 0Ah
    44  000A                     status equ 03h
    45  0003                     
     2                           opt pagewidth 120
     3  0000                     byte0	macro	val
     4                           	(getbyte(val,0))
     5                           endm
     6  0000                     byte1	macro	val
     7                           	(getbyte(val,1))
     8                           endm
     9  0000                     byte2	macro	val
    10                           	(getbyte(val,2))
    11                           endm
    12  0000                     byte3	macro	val
    13                           	(getbyte(val,3))
    14                           endm
    15  0000                     byte4	macro	val
    16                           	(getbyte(val,4))
    17                           endm
    18  0000                     byte5	macro	val
    19                           	(getbyte(val,5))
    20                           endm
    21  0000                     byte6	macro	val
    22                           	(getbyte(val,6))
    23                           endm
    24  0000                     byte7	macro	val
    25                           	(getbyte(val,7))
    26                           endm
    27  0000                     getword	macro	val,pos
    28                           	(((val) >> (8 * pos)) and 0xffff)
    29                           endm
    30  0000                     word0	macro	val
    31                           	(getword(val,0))
    32                           endm
    33  0000                     word1	macro	val
    34                           	(getword(val,2))
    35                           endm
    36  0000                     word2	macro	val
    37                           	(getword(val,4))
    38                           endm
    39  0000                     word3	macro	val
    40                           	(getword(val,6))
    41                           endm
    42  0000                     gettword	macro	val,pos
    43                           	(((val) >> (8 * pos)) and 0xffffff)
    44                           endm
    45  0000                     tword0	macro	val
    46                           	(gettword(val,0))
    47                           endm
    48  0000                     tword1	macro	val
    49                           	(gettword(val,3))
    50                           endm
    51  0000                     tword2	macro	val
    52                           	(gettword(val,6))
    53                           endm
    54  0000                     getdword	macro	val,pos
    55                           	(((val) >> (8 * pos)) and 0xffffffff)
    56                           endm
    57  0000                     dword0	macro	val
    58                           	(getdword(val,0))
    59                           endm
    60  0000                     dword1	macro	val
    61                           	(getdword(val,4))
    62                           endm
    63  0000                     clrc	macro
    64                           	bcf	3,0
    65                           	endm
    66  0000                     clrz	macro
    67                           	bcf	3,2
    68                           	endm
    69  0000                     setc	macro
    70                           	bsf	3,0
    71                           	endm
    72  0000                     setz	macro
    73                           	bsf	3,2
    74                           	endm
    75  0000                     skipc	macro
    76                           	btfss	3,0
    77                           	endm
    78  0000                     skipz	macro
    79                           	btfss	3,2
    80                           	endm
    81  0000                     skipnc	macro
    82                           	btfsc	3,0
    83                           	endm
    84  0000                     skipnz	macro
    85                           	btfsc	3,2
    86                           	endm
    87  0000                     # 54 "C:\Program Files (x86)\Microchip\xc8\v2.00\pic\include\pic16f887.h"
    88                           INDF equ 00h ;# 
    89  0000                     # 61 "C:\Program Files (x86)\Microchip\xc8\v2.00\pic\include\pic16f887.h"
    90                           TMR0 equ 01h ;# 
    91  0001                     # 68 "C:\Program Files (x86)\Microchip\xc8\v2.00\pic\include\pic16f887.h"
    92                           PCL equ 02h ;# 
    93  0002                     # 75 "C:\Program Files (x86)\Microchip\xc8\v2.00\pic\include\pic16f887.h"
    94                           STATUS equ 03h ;# 
    95  0003                     # 161 "C:\Program Files (x86)\Microchip\xc8\v2.00\pic\include\pic16f887.h"
    96                           FSR equ 04h ;# 
    97  0004                     # 168 "C:\Program Files (x86)\Microchip\xc8\v2.00\pic\include\pic16f887.h"
    98                           PORTA equ 05h ;# 
    99  0005                     # 230 "C:\Program Files (x86)\Microchip\xc8\v2.00\pic\include\pic16f887.h"
   100                           PORTB equ 06h ;# 
   101  0006                     # 292 "C:\Program Files (x86)\Microchip\xc8\v2.00\pic\include\pic16f887.h"
   102                           PORTC equ 07h ;# 
   103  0007                     # 354 "C:\Program Files (x86)\Microchip\xc8\v2.00\pic\include\pic16f887.h"
   104                           PORTD equ 08h ;# 
   105  0008                     # 416 "C:\Program Files (x86)\Microchip\xc8\v2.00\pic\include\pic16f887.h"
   106                           PORTE equ 09h ;# 
   107  0009                     # 454 "C:\Program Files (x86)\Microchip\xc8\v2.00\pic\include\pic16f887.h"
   108                           PCLATH equ 0Ah ;# 
   109  000A                     # 461 "C:\Program Files (x86)\Microchip\xc8\v2.00\pic\include\pic16f887.h"
   110                           INTCON equ 0Bh ;# 
   111  000B                     # 539 "C:\Program Files (x86)\Microchip\xc8\v2.00\pic\include\pic16f887.h"
   112                           PIR1 equ 0Ch ;# 
   113  000C                     # 595 "C:\Program Files (x86)\Microchip\xc8\v2.00\pic\include\pic16f887.h"
   114                           PIR2 equ 0Dh ;# 
   115  000D                     # 652 "C:\Program Files (x86)\Microchip\xc8\v2.00\pic\include\pic16f887.h"
   116                           TMR1 equ 0Eh ;# 
   117  000E                     # 659 "C:\Program Files (x86)\Microchip\xc8\v2.00\pic\include\pic16f887.h"
   118                           TMR1L equ 0Eh ;# 
   119  000E                     # 666 "C:\Program Files (x86)\Microchip\xc8\v2.00\pic\include\pic16f887.h"
   120                           TMR1H equ 0Fh ;# 
   121  000F                     # 673 "C:\Program Files (x86)\Microchip\xc8\v2.00\pic\include\pic16f887.h"
   122                           T1CON equ 010h ;# 
   123  0010                     # 767 "C:\Program Files (x86)\Microchip\xc8\v2.00\pic\include\pic16f887.h"
   124                           TMR2 equ 011h ;# 
   125  0011                     # 774 "C:\Program Files (x86)\Microchip\xc8\v2.00\pic\include\pic16f887.h"
   126                           T2CON equ 012h ;# 
   127  0012                     # 845 "C:\Program Files (x86)\Microchip\xc8\v2.00\pic\include\pic16f887.h"
   128                           SSPBUF equ 013h ;# 
   129  0013                     # 852 "C:\Program Files (x86)\Microchip\xc8\v2.00\pic\include\pic16f887.h"
   130                           SSPCON equ 014h ;# 
   131  0014                     # 922 "C:\Program Files (x86)\Microchip\xc8\v2.00\pic\include\pic16f887.h"
   132                           CCPR1 equ 015h ;# 
   133  0015                     # 929 "C:\Program Files (x86)\Microchip\xc8\v2.00\pic\include\pic16f887.h"
   134                           CCPR1L equ 015h ;# 
   135  0015                     # 936 "C:\Program Files (x86)\Microchip\xc8\v2.00\pic\include\pic16f887.h"
   136                           CCPR1H equ 016h ;# 
   137  0016                     # 943 "C:\Program Files (x86)\Microchip\xc8\v2.00\pic\include\pic16f887.h"
   138                           CCP1CON equ 017h ;# 
   139  0017                     # 1040 "C:\Program Files (x86)\Microchip\xc8\v2.00\pic\include\pic16f887.h"
   140                           RCSTA equ 018h ;# 
   141  0018                     # 1135 "C:\Program Files (x86)\Microchip\xc8\v2.00\pic\include\pic16f887.h"
   142                           TXREG equ 019h ;# 
   143  0019                     # 1142 "C:\Program Files (x86)\Microchip\xc8\v2.00\pic\include\pic16f887.h"
   144                           RCREG equ 01Ah ;# 
   145  001A                     # 1149 "C:\Program Files (x86)\Microchip\xc8\v2.00\pic\include\pic16f887.h"
   146                           CCPR2 equ 01Bh ;# 
   147  001B                     # 1156 "C:\Program Files (x86)\Microchip\xc8\v2.00\pic\include\pic16f887.h"
   148                           CCPR2L equ 01Bh ;# 
   149  001B                     # 1163 "C:\Program Files (x86)\Microchip\xc8\v2.00\pic\include\pic16f887.h"
   150                           CCPR2H equ 01Ch ;# 
   151  001C                     # 1170 "C:\Program Files (x86)\Microchip\xc8\v2.00\pic\include\pic16f887.h"
   152                           CCP2CON equ 01Dh ;# 
   153  001D                     # 1240 "C:\Program Files (x86)\Microchip\xc8\v2.00\pic\include\pic16f887.h"
   154                           ADRESH equ 01Eh ;# 
   155  001E                     # 1247 "C:\Program Files (x86)\Microchip\xc8\v2.00\pic\include\pic16f887.h"
   156                           ADCON0 equ 01Fh ;# 
   157  001F                     # 1348 "C:\Program Files (x86)\Microchip\xc8\v2.00\pic\include\pic16f887.h"
   158                           OPTION_REG equ 081h ;# 
   159  0081                     # 1418 "C:\Program Files (x86)\Microchip\xc8\v2.00\pic\include\pic16f887.h"
   160                           TRISA equ 085h ;# 
   161  0085                     # 1480 "C:\Program Files (x86)\Microchip\xc8\v2.00\pic\include\pic16f887.h"
   162                           TRISB equ 086h ;# 
   163  0086                     # 1542 "C:\Program Files (x86)\Microchip\xc8\v2.00\pic\include\pic16f887.h"
   164                           TRISC equ 087h ;# 
   165  0087                     # 1604 "C:\Program Files (x86)\Microchip\xc8\v2.00\pic\include\pic16f887.h"
   166                           TRISD equ 088h ;# 
   167  0088                     # 1666 "C:\Program Files (x86)\Microchip\xc8\v2.00\pic\include\pic16f887.h"
   168                           TRISE equ 089h ;# 
   169  0089                     # 1704 "C:\Program Files (x86)\Microchip\xc8\v2.00\pic\include\pic16f887.h"
   170                           PIE1 equ 08Ch ;# 
   171  008C                     # 1760 "C:\Program Files (x86)\Microchip\xc8\v2.00\pic\include\pic16f887.h"
   172                           PIE2 equ 08Dh ;# 
   173  008D                     # 1817 "C:\Program Files (x86)\Microchip\xc8\v2.00\pic\include\pic16f887.h"
   174                           PCON equ 08Eh ;# 
   175  008E                     # 1864 "C:\Program Files (x86)\Microchip\xc8\v2.00\pic\include\pic16f887.h"
   176                           OSCCON equ 08Fh ;# 
   177  008F                     # 1929 "C:\Program Files (x86)\Microchip\xc8\v2.00\pic\include\pic16f887.h"
   178                           OSCTUNE equ 090h ;# 
   179  0090                     # 1981 "C:\Program Files (x86)\Microchip\xc8\v2.00\pic\include\pic16f887.h"
   180                           SSPCON2 equ 091h ;# 
   181  0091                     # 2043 "C:\Program Files (x86)\Microchip\xc8\v2.00\pic\include\pic16f887.h"
   182                           PR2 equ 092h ;# 
   183  0092                     # 2050 "C:\Program Files (x86)\Microchip\xc8\v2.00\pic\include\pic16f887.h"
   184                           SSPADD equ 093h ;# 
   185  0093                     # 2057 "C:\Program Files (x86)\Microchip\xc8\v2.00\pic\include\pic16f887.h"
   186                           SSPMSK equ 093h ;# 
   187  0093                     # 2062 "C:\Program Files (x86)\Microchip\xc8\v2.00\pic\include\pic16f887.h"
   188                           MSK equ 093h ;# 
   189  0093                     # 2179 "C:\Program Files (x86)\Microchip\xc8\v2.00\pic\include\pic16f887.h"
   190                           SSPSTAT equ 094h ;# 
   191  0094                     # 2348 "C:\Program Files (x86)\Microchip\xc8\v2.00\pic\include\pic16f887.h"
   192                           WPUB equ 095h ;# 
   193  0095                     # 2418 "C:\Program Files (x86)\Microchip\xc8\v2.00\pic\include\pic16f887.h"
   194                           IOCB equ 096h ;# 
   195  0096                     # 2488 "C:\Program Files (x86)\Microchip\xc8\v2.00\pic\include\pic16f887.h"
   196                           VRCON equ 097h ;# 
   197  0097                     # 2558 "C:\Program Files (x86)\Microchip\xc8\v2.00\pic\include\pic16f887.h"
   198                           TXSTA equ 098h ;# 
   199  0098                     # 2644 "C:\Program Files (x86)\Microchip\xc8\v2.00\pic\include\pic16f887.h"
   200                           SPBRG equ 099h ;# 
   201  0099                     # 2706 "C:\Program Files (x86)\Microchip\xc8\v2.00\pic\include\pic16f887.h"
   202                           SPBRGH equ 09Ah ;# 
   203  009A                     # 2776 "C:\Program Files (x86)\Microchip\xc8\v2.00\pic\include\pic16f887.h"
   204                           PWM1CON equ 09Bh ;# 
   205  009B                     # 2846 "C:\Program Files (x86)\Microchip\xc8\v2.00\pic\include\pic16f887.h"
   206                           ECCPAS equ 09Ch ;# 
   207  009C                     # 2928 "C:\Program Files (x86)\Microchip\xc8\v2.00\pic\include\pic16f887.h"
   208                           PSTRCON equ 09Dh ;# 
   209  009D                     # 2972 "C:\Program Files (x86)\Microchip\xc8\v2.00\pic\include\pic16f887.h"
   210                           ADRESL equ 09Eh ;# 
   211  009E                     # 2979 "C:\Program Files (x86)\Microchip\xc8\v2.00\pic\include\pic16f887.h"
   212                           ADCON1 equ 09Fh ;# 
   213  009F                     # 3013 "C:\Program Files (x86)\Microchip\xc8\v2.00\pic\include\pic16f887.h"
   214                           WDTCON equ 0105h ;# 
   215  0105                     # 3066 "C:\Program Files (x86)\Microchip\xc8\v2.00\pic\include\pic16f887.h"
   216                           CM1CON0 equ 0107h ;# 
   217  0107                     # 3131 "C:\Program Files (x86)\Microchip\xc8\v2.00\pic\include\pic16f887.h"
   218                           CM2CON0 equ 0108h ;# 
   219  0108                     # 3196 "C:\Program Files (x86)\Microchip\xc8\v2.00\pic\include\pic16f887.h"
   220                           CM2CON1 equ 0109h ;# 
   221  0109                     # 3247 "C:\Program Files (x86)\Microchip\xc8\v2.00\pic\include\pic16f887.h"
   222                           EEDATA equ 010Ch ;# 
   223  010C                     # 3252 "C:\Program Files (x86)\Microchip\xc8\v2.00\pic\include\pic16f887.h"
   224                           EEDAT equ 010Ch ;# 
   225  010C                     # 3259 "C:\Program Files (x86)\Microchip\xc8\v2.00\pic\include\pic16f887.h"
   226                           EEADR equ 010Dh ;# 
   227  010D                     # 3266 "C:\Program Files (x86)\Microchip\xc8\v2.00\pic\include\pic16f887.h"
   228                           EEDATH equ 010Eh ;# 
   229  010E                     # 3273 "C:\Program Files (x86)\Microchip\xc8\v2.00\pic\include\pic16f887.h"
   230                           EEADRH equ 010Fh ;# 
   231  010F                     # 3280 "C:\Program Files (x86)\Microchip\xc8\v2.00\pic\include\pic16f887.h"
   232                           SRCON equ 0185h ;# 
   233  0185                     # 3337 "C:\Program Files (x86)\Microchip\xc8\v2.00\pic\include\pic16f887.h"
   234                           BAUDCTL equ 0187h ;# 
   235  0187                     # 3389 "C:\Program Files (x86)\Microchip\xc8\v2.00\pic\include\pic16f887.h"
   236                           ANSEL equ 0188h ;# 
   237  0188                     # 3451 "C:\Program Files (x86)\Microchip\xc8\v2.00\pic\include\pic16f887.h"
   238                           ANSELH equ 0189h ;# 
   239  0189                     # 3501 "C:\Program Files (x86)\Microchip\xc8\v2.00\pic\include\pic16f887.h"
   240                           EECON1 equ 018Ch ;# 
   241  018C                     # 3546 "C:\Program Files (x86)\Microchip\xc8\v2.00\pic\include\pic16f887.h"
   242                           EECON2 equ 018Dh ;# 
   243  018D                     # 54 "C:\Program Files (x86)\Microchip\xc8\v2.00\pic\include\pic16f887.h"
   244                           INDF equ 00h ;# 
   245  0000                     # 61 "C:\Program Files (x86)\Microchip\xc8\v2.00\pic\include\pic16f887.h"
   246                           TMR0 equ 01h ;# 
   247  0001                     # 68 "C:\Program Files (x86)\Microchip\xc8\v2.00\pic\include\pic16f887.h"
   248                           PCL equ 02h ;# 
   249  0002                     # 75 "C:\Program Files (x86)\Microchip\xc8\v2.00\pic\include\pic16f887.h"
   250                           STATUS equ 03h ;# 
   251  0003                     # 161 "C:\Program Files (x86)\Microchip\xc8\v2.00\pic\include\pic16f887.h"
   252                           FSR equ 04h ;# 
   253  0004                     # 168 "C:\Program Files (x86)\Microchip\xc8\v2.00\pic\include\pic16f887.h"
   254                           PORTA equ 05h ;# 
   255  0005                     # 230 "C:\Program Files (x86)\Microchip\xc8\v2.00\pic\include\pic16f887.h"
   256                           PORTB equ 06h ;# 
   257  0006                     # 292 "C:\Program Files (x86)\Microchip\xc8\v2.00\pic\include\pic16f887.h"
   258                           PORTC equ 07h ;# 
   259  0007                     # 354 "C:\Program Files (x86)\Microchip\xc8\v2.00\pic\include\pic16f887.h"
   260                           PORTD equ 08h ;# 
   261  0008                     # 416 "C:\Program Files (x86)\Microchip\xc8\v2.00\pic\include\pic16f887.h"
   262                           PORTE equ 09h ;# 
   263  0009                     # 454 "C:\Program Files (x86)\Microchip\xc8\v2.00\pic\include\pic16f887.h"
   264                           PCLATH equ 0Ah ;# 
   265  000A                     # 461 "C:\Program Files (x86)\Microchip\xc8\v2.00\pic\include\pic16f887.h"
   266                           INTCON equ 0Bh ;# 
   267  000B                     # 539 "C:\Program Files (x86)\Microchip\xc8\v2.00\pic\include\pic16f887.h"
   268                           PIR1 equ 0Ch ;# 
   269  000C                     # 595 "C:\Program Files (x86)\Microchip\xc8\v2.00\pic\include\pic16f887.h"
   270                           PIR2 equ 0Dh ;# 
   271  000D                     # 652 "C:\Program Files (x86)\Microchip\xc8\v2.00\pic\include\pic16f887.h"
   272                           TMR1 equ 0Eh ;# 
   273  000E                     # 659 "C:\Program Files (x86)\Microchip\xc8\v2.00\pic\include\pic16f887.h"
   274                           TMR1L equ 0Eh ;# 
   275  000E                     # 666 "C:\Program Files (x86)\Microchip\xc8\v2.00\pic\include\pic16f887.h"
   276                           TMR1H equ 0Fh ;# 
   277  000F                     # 673 "C:\Program Files (x86)\Microchip\xc8\v2.00\pic\include\pic16f887.h"
   278                           T1CON equ 010h ;# 
   279  0010                     # 767 "C:\Program Files (x86)\Microchip\xc8\v2.00\pic\include\pic16f887.h"
   280                           TMR2 equ 011h ;# 
   281  0011                     # 774 "C:\Program Files (x86)\Microchip\xc8\v2.00\pic\include\pic16f887.h"
   282                           T2CON equ 012h ;# 
   283  0012                     # 845 "C:\Program Files (x86)\Microchip\xc8\v2.00\pic\include\pic16f887.h"
   284                           SSPBUF equ 013h ;# 
   285  0013                     # 852 "C:\Program Files (x86)\Microchip\xc8\v2.00\pic\include\pic16f887.h"
   286                           SSPCON equ 014h ;# 
   287  0014                     # 922 "C:\Program Files (x86)\Microchip\xc8\v2.00\pic\include\pic16f887.h"
   288                           CCPR1 equ 015h ;# 
   289  0015                     # 929 "C:\Program Files (x86)\Microchip\xc8\v2.00\pic\include\pic16f887.h"
   290                           CCPR1L equ 015h ;# 
   291  0015                     # 936 "C:\Program Files (x86)\Microchip\xc8\v2.00\pic\include\pic16f887.h"
   292                           CCPR1H equ 016h ;# 
   293  0016                     # 943 "C:\Program Files (x86)\Microchip\xc8\v2.00\pic\include\pic16f887.h"
   294                           CCP1CON equ 017h ;# 
   295  0017                     # 1040 "C:\Program Files (x86)\Microchip\xc8\v2.00\pic\include\pic16f887.h"
   296                           RCSTA equ 018h ;# 
   297  0018                     # 1135 "C:\Program Files (x86)\Microchip\xc8\v2.00\pic\include\pic16f887.h"
   298                           TXREG equ 019h ;# 
   299  0019                     # 1142 "C:\Program Files (x86)\Microchip\xc8\v2.00\pic\include\pic16f887.h"
   300                           RCREG equ 01Ah ;# 
   301  001A                     # 1149 "C:\Program Files (x86)\Microchip\xc8\v2.00\pic\include\pic16f887.h"
   302                           CCPR2 equ 01Bh ;# 
   303  001B                     # 1156 "C:\Program Files (x86)\Microchip\xc8\v2.00\pic\include\pic16f887.h"
   304                           CCPR2L equ 01Bh ;# 
   305  001B                     # 1163 "C:\Program Files (x86)\Microchip\xc8\v2.00\pic\include\pic16f887.h"
   306                           CCPR2H equ 01Ch ;# 
   307  001C                     # 1170 "C:\Program Files (x86)\Microchip\xc8\v2.00\pic\include\pic16f887.h"
   308                           CCP2CON equ 01Dh ;# 
   309  001D                     # 1240 "C:\Program Files (x86)\Microchip\xc8\v2.00\pic\include\pic16f887.h"
   310                           ADRESH equ 01Eh ;# 
   311  001E                     # 1247 "C:\Program Files (x86)\Microchip\xc8\v2.00\pic\include\pic16f887.h"
   312                           ADCON0 equ 01Fh ;# 
   313  001F                     # 1348 "C:\Program Files (x86)\Microchip\xc8\v2.00\pic\include\pic16f887.h"
   314                           OPTION_REG equ 081h ;# 
   315  0081                     # 1418 "C:\Program Files (x86)\Microchip\xc8\v2.00\pic\include\pic16f887.h"
   316                           TRISA equ 085h ;# 
   317  0085                     # 1480 "C:\Program Files (x86)\Microchip\xc8\v2.00\pic\include\pic16f887.h"
   318                           TRISB equ 086h ;# 
   319  0086                     # 1542 "C:\Program Files (x86)\Microchip\xc8\v2.00\pic\include\pic16f887.h"
   320                           TRISC equ 087h ;# 
   321  0087                     # 1604 "C:\Program Files (x86)\Microchip\xc8\v2.00\pic\include\pic16f887.h"
   322                           TRISD equ 088h ;# 
   323  0088                     # 1666 "C:\Program Files (x86)\Microchip\xc8\v2.00\pic\include\pic16f887.h"
   324                           TRISE equ 089h ;# 
   325  0089                     # 1704 "C:\Program Files (x86)\Microchip\xc8\v2.00\pic\include\pic16f887.h"
   326                           PIE1 equ 08Ch ;# 
   327  008C                     # 1760 "C:\Program Files (x86)\Microchip\xc8\v2.00\pic\include\pic16f887.h"
   328                           PIE2 equ 08Dh ;# 
   329  008D                     # 1817 "C:\Program Files (x86)\Microchip\xc8\v2.00\pic\include\pic16f887.h"
   330                           PCON equ 08Eh ;# 
   331  008E                     # 1864 "C:\Program Files (x86)\Microchip\xc8\v2.00\pic\include\pic16f887.h"
   332                           OSCCON equ 08Fh ;# 
   333  008F                     # 1929 "C:\Program Files (x86)\Microchip\xc8\v2.00\pic\include\pic16f887.h"
   334                           OSCTUNE equ 090h ;# 
   335  0090                     # 1981 "C:\Program Files (x86)\Microchip\xc8\v2.00\pic\include\pic16f887.h"
   336                           SSPCON2 equ 091h ;# 
   337  0091                     # 2043 "C:\Program Files (x86)\Microchip\xc8\v2.00\pic\include\pic16f887.h"
   338                           PR2 equ 092h ;# 
   339  0092                     # 2050 "C:\Program Files (x86)\Microchip\xc8\v2.00\pic\include\pic16f887.h"
   340                           SSPADD equ 093h ;# 
   341  0093                     # 2057 "C:\Program Files (x86)\Microchip\xc8\v2.00\pic\include\pic16f887.h"
   342                           SSPMSK equ 093h ;# 
   343  0093                     # 2062 "C:\Program Files (x86)\Microchip\xc8\v2.00\pic\include\pic16f887.h"
   344                           MSK equ 093h ;# 
   345  0093                     # 2179 "C:\Program Files (x86)\Microchip\xc8\v2.00\pic\include\pic16f887.h"
   346                           SSPSTAT equ 094h ;# 
   347  0094                     # 2348 "C:\Program Files (x86)\Microchip\xc8\v2.00\pic\include\pic16f887.h"
   348                           WPUB equ 095h ;# 
   349  0095                     # 2418 "C:\Program Files (x86)\Microchip\xc8\v2.00\pic\include\pic16f887.h"
   350                           IOCB equ 096h ;# 
   351  0096                     # 2488 "C:\Program Files (x86)\Microchip\xc8\v2.00\pic\include\pic16f887.h"
   352                           VRCON equ 097h ;# 
   353  0097                     # 2558 "C:\Program Files (x86)\Microchip\xc8\v2.00\pic\include\pic16f887.h"
   354                           TXSTA equ 098h ;# 
   355  0098                     # 2644 "C:\Program Files (x86)\Microchip\xc8\v2.00\pic\include\pic16f887.h"
   356                           SPBRG equ 099h ;# 
   357  0099                     # 2706 "C:\Program Files (x86)\Microchip\xc8\v2.00\pic\include\pic16f887.h"
   358                           SPBRGH equ 09Ah ;# 
   359  009A                     # 2776 "C:\Program Files (x86)\Microchip\xc8\v2.00\pic\include\pic16f887.h"
   360                           PWM1CON equ 09Bh ;# 
   361  009B                     # 2846 "C:\Program Files (x86)\Microchip\xc8\v2.00\pic\include\pic16f887.h"
   362                           ECCPAS equ 09Ch ;# 
   363  009C                     # 2928 "C:\Program Files (x86)\Microchip\xc8\v2.00\pic\include\pic16f887.h"
   364                           PSTRCON equ 09Dh ;# 
   365  009D                     # 2972 "C:\Program Files (x86)\Microchip\xc8\v2.00\pic\include\pic16f887.h"
   366                           ADRESL equ 09Eh ;# 
   367  009E                     # 2979 "C:\Program Files (x86)\Microchip\xc8\v2.00\pic\include\pic16f887.h"
   368                           ADCON1 equ 09Fh ;# 
   369  009F                     # 3013 "C:\Program Files (x86)\Microchip\xc8\v2.00\pic\include\pic16f887.h"
   370                           WDTCON equ 0105h ;# 
   371  0105                     # 3066 "C:\Program Files (x86)\Microchip\xc8\v2.00\pic\include\pic16f887.h"
   372                           CM1CON0 equ 0107h ;# 
   373  0107                     # 3131 "C:\Program Files (x86)\Microchip\xc8\v2.00\pic\include\pic16f887.h"
   374                           CM2CON0 equ 0108h ;# 
   375  0108                     # 3196 "C:\Program Files (x86)\Microchip\xc8\v2.00\pic\include\pic16f887.h"
   376                           CM2CON1 equ 0109h ;# 
   377  0109                     # 3247 "C:\Program Files (x86)\Microchip\xc8\v2.00\pic\include\pic16f887.h"
   378                           EEDATA equ 010Ch ;# 
   379  010C                     # 3252 "C:\Program Files (x86)\Microchip\xc8\v2.00\pic\include\pic16f887.h"
   380                           EEDAT equ 010Ch ;# 
   381  010C                     # 3259 "C:\Program Files (x86)\Microchip\xc8\v2.00\pic\include\pic16f887.h"
   382                           EEADR equ 010Dh ;# 
   383  010D                     # 3266 "C:\Program Files (x86)\Microchip\xc8\v2.00\pic\include\pic16f887.h"
   384                           EEDATH equ 010Eh ;# 
   385  010E                     # 3273 "C:\Program Files (x86)\Microchip\xc8\v2.00\pic\include\pic16f887.h"
   386                           EEADRH equ 010Fh ;# 
   387  010F                     # 3280 "C:\Program Files (x86)\Microchip\xc8\v2.00\pic\include\pic16f887.h"
   388                           SRCON equ 0185h ;# 
   389  0185                     # 3337 "C:\Program Files (x86)\Microchip\xc8\v2.00\pic\include\pic16f887.h"
   390                           BAUDCTL equ 0187h ;# 
   391  0187                     # 3389 "C:\Program Files (x86)\Microchip\xc8\v2.00\pic\include\pic16f887.h"
   392                           ANSEL equ 0188h ;# 
   393  0188                     # 3451 "C:\Program Files (x86)\Microchip\xc8\v2.00\pic\include\pic16f887.h"
   394                           ANSELH equ 0189h ;# 
   395  0189                     # 3501 "C:\Program Files (x86)\Microchip\xc8\v2.00\pic\include\pic16f887.h"
   396                           EECON1 equ 018Ch ;# 
   397  018C                     # 3546 "C:\Program Files (x86)\Microchip\xc8\v2.00\pic\include\pic16f887.h"
   398                           EECON2 equ 018Dh ;# 
   399  018D                     # 54 "C:\Program Files (x86)\Microchip\xc8\v2.00\pic\include\pic16f887.h"
   400                           INDF equ 00h ;# 
   401  0000                     # 61 "C:\Program Files (x86)\Microchip\xc8\v2.00\pic\include\pic16f887.h"
   402                           TMR0 equ 01h ;# 
   403  0001                     # 68 "C:\Program Files (x86)\Microchip\xc8\v2.00\pic\include\pic16f887.h"
   404                           PCL equ 02h ;# 
   405  0002                     # 75 "C:\Program Files (x86)\Microchip\xc8\v2.00\pic\include\pic16f887.h"
   406                           STATUS equ 03h ;# 
   407  0003                     # 161 "C:\Program Files (x86)\Microchip\xc8\v2.00\pic\include\pic16f887.h"
   408                           FSR equ 04h ;# 
   409  0004                     # 168 "C:\Program Files (x86)\Microchip\xc8\v2.00\pic\include\pic16f887.h"
   410                           PORTA equ 05h ;# 
   411  0005                     # 230 "C:\Program Files (x86)\Microchip\xc8\v2.00\pic\include\pic16f887.h"
   412                           PORTB equ 06h ;# 
   413  0006                     # 292 "C:\Program Files (x86)\Microchip\xc8\v2.00\pic\include\pic16f887.h"
   414                           PORTC equ 07h ;# 
   415  0007                     # 354 "C:\Program Files (x86)\Microchip\xc8\v2.00\pic\include\pic16f887.h"
   416                           PORTD equ 08h ;# 
   417  0008                     # 416 "C:\Program Files (x86)\Microchip\xc8\v2.00\pic\include\pic16f887.h"
   418                           PORTE equ 09h ;# 
   419  0009                     # 454 "C:\Program Files (x86)\Microchip\xc8\v2.00\pic\include\pic16f887.h"
   420                           PCLATH equ 0Ah ;# 
   421  000A                     # 461 "C:\Program Files (x86)\Microchip\xc8\v2.00\pic\include\pic16f887.h"
   422                           INTCON equ 0Bh ;# 
   423  000B                     # 539 "C:\Program Files (x86)\Microchip\xc8\v2.00\pic\include\pic16f887.h"
   424                           PIR1 equ 0Ch ;# 
   425  000C                     # 595 "C:\Program Files (x86)\Microchip\xc8\v2.00\pic\include\pic16f887.h"
   426                           PIR2 equ 0Dh ;# 
   427  000D                     # 652 "C:\Program Files (x86)\Microchip\xc8\v2.00\pic\include\pic16f887.h"
   428                           TMR1 equ 0Eh ;# 
   429  000E                     # 659 "C:\Program Files (x86)\Microchip\xc8\v2.00\pic\include\pic16f887.h"
   430                           TMR1L equ 0Eh ;# 
   431  000E                     # 666 "C:\Program Files (x86)\Microchip\xc8\v2.00\pic\include\pic16f887.h"
   432                           TMR1H equ 0Fh ;# 
   433  000F                     # 673 "C:\Program Files (x86)\Microchip\xc8\v2.00\pic\include\pic16f887.h"
   434                           T1CON equ 010h ;# 
   435  0010                     # 767 "C:\Program Files (x86)\Microchip\xc8\v2.00\pic\include\pic16f887.h"
   436                           TMR2 equ 011h ;# 
   437  0011                     # 774 "C:\Program Files (x86)\Microchip\xc8\v2.00\pic\include\pic16f887.h"
   438                           T2CON equ 012h ;# 
   439  0012                     # 845 "C:\Program Files (x86)\Microchip\xc8\v2.00\pic\include\pic16f887.h"
   440                           SSPBUF equ 013h ;# 
   441  0013                     # 852 "C:\Program Files (x86)\Microchip\xc8\v2.00\pic\include\pic16f887.h"
   442                           SSPCON equ 014h ;# 
   443  0014                     # 922 "C:\Program Files (x86)\Microchip\xc8\v2.00\pic\include\pic16f887.h"
   444                           CCPR1 equ 015h ;# 
   445  0015                     # 929 "C:\Program Files (x86)\Microchip\xc8\v2.00\pic\include\pic16f887.h"
   446                           CCPR1L equ 015h ;# 
   447  0015                     # 936 "C:\Program Files (x86)\Microchip\xc8\v2.00\pic\include\pic16f887.h"
   448                           CCPR1H equ 016h ;# 
   449  0016                     # 943 "C:\Program Files (x86)\Microchip\xc8\v2.00\pic\include\pic16f887.h"
   450                           CCP1CON equ 017h ;# 
   451  0017                     # 1040 "C:\Program Files (x86)\Microchip\xc8\v2.00\pic\include\pic16f887.h"
   452                           RCSTA equ 018h ;# 
   453  0018                     # 1135 "C:\Program Files (x86)\Microchip\xc8\v2.00\pic\include\pic16f887.h"
   454                           TXREG equ 019h ;# 
   455  0019                     # 1142 "C:\Program Files (x86)\Microchip\xc8\v2.00\pic\include\pic16f887.h"
   456                           RCREG equ 01Ah ;# 
   457  001A                     # 1149 "C:\Program Files (x86)\Microchip\xc8\v2.00\pic\include\pic16f887.h"
   458                           CCPR2 equ 01Bh ;# 
   459  001B                     # 1156 "C:\Program Files (x86)\Microchip\xc8\v2.00\pic\include\pic16f887.h"
   460                           CCPR2L equ 01Bh ;# 
   461  001B                     # 1163 "C:\Program Files (x86)\Microchip\xc8\v2.00\pic\include\pic16f887.h"
   462                           CCPR2H equ 01Ch ;# 
   463  001C                     # 1170 "C:\Program Files (x86)\Microchip\xc8\v2.00\pic\include\pic16f887.h"
   464                           CCP2CON equ 01Dh ;# 
   465  001D                     # 1240 "C:\Program Files (x86)\Microchip\xc8\v2.00\pic\include\pic16f887.h"
   466                           ADRESH equ 01Eh ;# 
   467  001E                     # 1247 "C:\Program Files (x86)\Microchip\xc8\v2.00\pic\include\pic16f887.h"
   468                           ADCON0 equ 01Fh ;# 
   469  001F                     # 1348 "C:\Program Files (x86)\Microchip\xc8\v2.00\pic\include\pic16f887.h"
   470                           OPTION_REG equ 081h ;# 
   471  0081                     # 1418 "C:\Program Files (x86)\Microchip\xc8\v2.00\pic\include\pic16f887.h"
   472                           TRISA equ 085h ;# 
   473  0085                     # 1480 "C:\Program Files (x86)\Microchip\xc8\v2.00\pic\include\pic16f887.h"
   474                           TRISB equ 086h ;# 
   475  0086                     # 1542 "C:\Program Files (x86)\Microchip\xc8\v2.00\pic\include\pic16f887.h"
   476                           TRISC equ 087h ;# 
   477  0087                     # 1604 "C:\Program Files (x86)\Microchip\xc8\v2.00\pic\include\pic16f887.h"
   478                           TRISD equ 088h ;# 
   479  0088                     # 1666 "C:\Program Files (x86)\Microchip\xc8\v2.00\pic\include\pic16f887.h"
   480                           TRISE equ 089h ;# 
   481  0089                     # 1704 "C:\Program Files (x86)\Microchip\xc8\v2.00\pic\include\pic16f887.h"
   482                           PIE1 equ 08Ch ;# 
   483  008C                     # 1760 "C:\Program Files (x86)\Microchip\xc8\v2.00\pic\include\pic16f887.h"
   484                           PIE2 equ 08Dh ;# 
   485  008D                     # 1817 "C:\Program Files (x86)\Microchip\xc8\v2.00\pic\include\pic16f887.h"
   486                           PCON equ 08Eh ;# 
   487  008E                     # 1864 "C:\Program Files (x86)\Microchip\xc8\v2.00\pic\include\pic16f887.h"
   488                           OSCCON equ 08Fh ;# 
   489  008F                     # 1929 "C:\Program Files (x86)\Microchip\xc8\v2.00\pic\include\pic16f887.h"
   490                           OSCTUNE equ 090h ;# 
   491  0090                     # 1981 "C:\Program Files (x86)\Microchip\xc8\v2.00\pic\include\pic16f887.h"
   492                           SSPCON2 equ 091h ;# 
   493  0091                     # 2043 "C:\Program Files (x86)\Microchip\xc8\v2.00\pic\include\pic16f887.h"
   494                           PR2 equ 092h ;# 
   495  0092                     # 2050 "C:\Program Files (x86)\Microchip\xc8\v2.00\pic\include\pic16f887.h"
   496                           SSPADD equ 093h ;# 
   497  0093                     # 2057 "C:\Program Files (x86)\Microchip\xc8\v2.00\pic\include\pic16f887.h"
   498                           SSPMSK equ 093h ;# 
   499  0093                     # 2062 "C:\Program Files (x86)\Microchip\xc8\v2.00\pic\include\pic16f887.h"
   500                           MSK equ 093h ;# 
   501  0093                     # 2179 "C:\Program Files (x86)\Microchip\xc8\v2.00\pic\include\pic16f887.h"
   502                           SSPSTAT equ 094h ;# 
   503  0094                     # 2348 "C:\Program Files (x86)\Microchip\xc8\v2.00\pic\include\pic16f887.h"
   504                           WPUB equ 095h ;# 
   505  0095                     # 2418 "C:\Program Files (x86)\Microchip\xc8\v2.00\pic\include\pic16f887.h"
   506                           IOCB equ 096h ;# 
   507  0096                     # 2488 "C:\Program Files (x86)\Microchip\xc8\v2.00\pic\include\pic16f887.h"
   508                           VRCON equ 097h ;# 
   509  0097                     # 2558 "C:\Program Files (x86)\Microchip\xc8\v2.00\pic\include\pic16f887.h"
   510                           TXSTA equ 098h ;# 
   511  0098                     # 2644 "C:\Program Files (x86)\Microchip\xc8\v2.00\pic\include\pic16f887.h"
   512                           SPBRG equ 099h ;# 
   513  0099                     # 2706 "C:\Program Files (x86)\Microchip\xc8\v2.00\pic\include\pic16f887.h"
   514                           SPBRGH equ 09Ah ;# 
   515  009A                     # 2776 "C:\Program Files (x86)\Microchip\xc8\v2.00\pic\include\pic16f887.h"
   516                           PWM1CON equ 09Bh ;# 
   517  009B                     # 2846 "C:\Program Files (x86)\Microchip\xc8\v2.00\pic\include\pic16f887.h"
   518                           ECCPAS equ 09Ch ;# 
   519  009C                     # 2928 "C:\Program Files (x86)\Microchip\xc8\v2.00\pic\include\pic16f887.h"
   520                           PSTRCON equ 09Dh ;# 
   521  009D                     # 2972 "C:\Program Files (x86)\Microchip\xc8\v2.00\pic\include\pic16f887.h"
   522                           ADRESL equ 09Eh ;# 
   523  009E                     # 2979 "C:\Program Files (x86)\Microchip\xc8\v2.00\pic\include\pic16f887.h"
   524                           ADCON1 equ 09Fh ;# 
   525  009F                     # 3013 "C:\Program Files (x86)\Microchip\xc8\v2.00\pic\include\pic16f887.h"
   526                           WDTCON equ 0105h ;# 
   527  0105                     # 3066 "C:\Program Files (x86)\Microchip\xc8\v2.00\pic\include\pic16f887.h"
   528                           CM1CON0 equ 0107h ;# 
   529  0107                     # 3131 "C:\Program Files (x86)\Microchip\xc8\v2.00\pic\include\pic16f887.h"
   530                           CM2CON0 equ 0108h ;# 
   531  0108                     # 3196 "C:\Program Files (x86)\Microchip\xc8\v2.00\pic\include\pic16f887.h"
   532                           CM2CON1 equ 0109h ;# 
   533  0109                     # 3247 "C:\Program Files (x86)\Microchip\xc8\v2.00\pic\include\pic16f887.h"
   534                           EEDATA equ 010Ch ;# 
   535  010C                     # 3252 "C:\Program Files (x86)\Microchip\xc8\v2.00\pic\include\pic16f887.h"
   536                           EEDAT equ 010Ch ;# 
   537  010C                     # 3259 "C:\Program Files (x86)\Microchip\xc8\v2.00\pic\include\pic16f887.h"
   538                           EEADR equ 010Dh ;# 
   539  010D                     # 3266 "C:\Program Files (x86)\Microchip\xc8\v2.00\pic\include\pic16f887.h"
   540                           EEDATH equ 010Eh ;# 
   541  010E                     # 3273 "C:\Program Files (x86)\Microchip\xc8\v2.00\pic\include\pic16f887.h"
   542                           EEADRH equ 010Fh ;# 
   543  010F                     # 3280 "C:\Program Files (x86)\Microchip\xc8\v2.00\pic\include\pic16f887.h"
   544                           SRCON equ 0185h ;# 
   545  0185                     # 3337 "C:\Program Files (x86)\Microchip\xc8\v2.00\pic\include\pic16f887.h"
   546                           BAUDCTL equ 0187h ;# 
   547  0187                     # 3389 "C:\Program Files (x86)\Microchip\xc8\v2.00\pic\include\pic16f887.h"
   548                           ANSEL equ 0188h ;# 
   549  0188                     # 3451 "C:\Program Files (x86)\Microchip\xc8\v2.00\pic\include\pic16f887.h"
   550                           ANSELH equ 0189h ;# 
   551  0189                     # 3501 "C:\Program Files (x86)\Microchip\xc8\v2.00\pic\include\pic16f887.h"
   552                           EECON1 equ 018Ch ;# 
   553  018C                     # 3546 "C:\Program Files (x86)\Microchip\xc8\v2.00\pic\include\pic16f887.h"
   554                           EECON2 equ 018Dh ;# 
   555  018D                     # 54 "C:\Program Files (x86)\Microchip\xc8\v2.00\pic\include\pic16f887.h"
   556                           INDF equ 00h ;# 
   557  0000                     # 61 "C:\Program Files (x86)\Microchip\xc8\v2.00\pic\include\pic16f887.h"
   558                           TMR0 equ 01h ;# 
   559  0001                     # 68 "C:\Program Files (x86)\Microchip\xc8\v2.00\pic\include\pic16f887.h"
   560                           PCL equ 02h ;# 
   561  0002                     # 75 "C:\Program Files (x86)\Microchip\xc8\v2.00\pic\include\pic16f887.h"
   562                           STATUS equ 03h ;# 
   563  0003                     # 161 "C:\Program Files (x86)\Microchip\xc8\v2.00\pic\include\pic16f887.h"
   564                           FSR equ 04h ;# 
   565  0004                     # 168 "C:\Program Files (x86)\Microchip\xc8\v2.00\pic\include\pic16f887.h"
   566                           PORTA equ 05h ;# 
   567  0005                     # 230 "C:\Program Files (x86)\Microchip\xc8\v2.00\pic\include\pic16f887.h"
   568                           PORTB equ 06h ;# 
   569  0006                     # 292 "C:\Program Files (x86)\Microchip\xc8\v2.00\pic\include\pic16f887.h"
   570                           PORTC equ 07h ;# 
   571  0007                     # 354 "C:\Program Files (x86)\Microchip\xc8\v2.00\pic\include\pic16f887.h"
   572                           PORTD equ 08h ;# 
   573  0008                     # 416 "C:\Program Files (x86)\Microchip\xc8\v2.00\pic\include\pic16f887.h"
   574                           PORTE equ 09h ;# 
   575  0009                     # 454 "C:\Program Files (x86)\Microchip\xc8\v2.00\pic\include\pic16f887.h"
   576                           PCLATH equ 0Ah ;# 
   577  000A                     # 461 "C:\Program Files (x86)\Microchip\xc8\v2.00\pic\include\pic16f887.h"
   578                           INTCON equ 0Bh ;# 
   579  000B                     # 539 "C:\Program Files (x86)\Microchip\xc8\v2.00\pic\include\pic16f887.h"
   580                           PIR1 equ 0Ch ;# 
   581  000C                     # 595 "C:\Program Files (x86)\Microchip\xc8\v2.00\pic\include\pic16f887.h"
   582                           PIR2 equ 0Dh ;# 
   583  000D                     # 652 "C:\Program Files (x86)\Microchip\xc8\v2.00\pic\include\pic16f887.h"
   584                           TMR1 equ 0Eh ;# 
   585  000E                     # 659 "C:\Program Files (x86)\Microchip\xc8\v2.00\pic\include\pic16f887.h"
   586                           TMR1L equ 0Eh ;# 
   587  000E                     # 666 "C:\Program Files (x86)\Microchip\xc8\v2.00\pic\include\pic16f887.h"
   588                           TMR1H equ 0Fh ;# 
   589  000F                     # 673 "C:\Program Files (x86)\Microchip\xc8\v2.00\pic\include\pic16f887.h"
   590                           T1CON equ 010h ;# 
   591  0010                     # 767 "C:\Program Files (x86)\Microchip\xc8\v2.00\pic\include\pic16f887.h"
   592                           TMR2 equ 011h ;# 
   593  0011                     # 774 "C:\Program Files (x86)\Microchip\xc8\v2.00\pic\include\pic16f887.h"
   594                           T2CON equ 012h ;# 
   595  0012                     # 845 "C:\Program Files (x86)\Microchip\xc8\v2.00\pic\include\pic16f887.h"
   596                           SSPBUF equ 013h ;# 
   597  0013                     # 852 "C:\Program Files (x86)\Microchip\xc8\v2.00\pic\include\pic16f887.h"
   598                           SSPCON equ 014h ;# 
   599  0014                     # 922 "C:\Program Files (x86)\Microchip\xc8\v2.00\pic\include\pic16f887.h"
   600                           CCPR1 equ 015h ;# 
   601  0015                     # 929 "C:\Program Files (x86)\Microchip\xc8\v2.00\pic\include\pic16f887.h"
   602                           CCPR1L equ 015h ;# 
   603  0015                     # 936 "C:\Program Files (x86)\Microchip\xc8\v2.00\pic\include\pic16f887.h"
   604                           CCPR1H equ 016h ;# 
   605  0016                     # 943 "C:\Program Files (x86)\Microchip\xc8\v2.00\pic\include\pic16f887.h"
   606                           CCP1CON equ 017h ;# 
   607  0017                     # 1040 "C:\Program Files (x86)\Microchip\xc8\v2.00\pic\include\pic16f887.h"
   608                           RCSTA equ 018h ;# 
   609  0018                     # 1135 "C:\Program Files (x86)\Microchip\xc8\v2.00\pic\include\pic16f887.h"
   610                           TXREG equ 019h ;# 
   611  0019                     # 1142 "C:\Program Files (x86)\Microchip\xc8\v2.00\pic\include\pic16f887.h"
   612                           RCREG equ 01Ah ;# 
   613  001A                     # 1149 "C:\Program Files (x86)\Microchip\xc8\v2.00\pic\include\pic16f887.h"
   614                           CCPR2 equ 01Bh ;# 
   615  001B                     # 1156 "C:\Program Files (x86)\Microchip\xc8\v2.00\pic\include\pic16f887.h"
   616                           CCPR2L equ 01Bh ;# 
   617  001B                     # 1163 "C:\Program Files (x86)\Microchip\xc8\v2.00\pic\include\pic16f887.h"
   618                           CCPR2H equ 01Ch ;# 
   619  001C                     # 1170 "C:\Program Files (x86)\Microchip\xc8\v2.00\pic\include\pic16f887.h"
   620                           CCP2CON equ 01Dh ;# 
   621  001D                     # 1240 "C:\Program Files (x86)\Microchip\xc8\v2.00\pic\include\pic16f887.h"
   622                           ADRESH equ 01Eh ;# 
   623  001E                     # 1247 "C:\Program Files (x86)\Microchip\xc8\v2.00\pic\include\pic16f887.h"
   624                           ADCON0 equ 01Fh ;# 
   625  001F                     # 1348 "C:\Program Files (x86)\Microchip\xc8\v2.00\pic\include\pic16f887.h"
   626                           OPTION_REG equ 081h ;# 
   627  0081                     # 1418 "C:\Program Files (x86)\Microchip\xc8\v2.00\pic\include\pic16f887.h"
   628                           TRISA equ 085h ;# 
   629  0085                     # 1480 "C:\Program Files (x86)\Microchip\xc8\v2.00\pic\include\pic16f887.h"
   630                           TRISB equ 086h ;# 
   631  0086                     # 1542 "C:\Program Files (x86)\Microchip\xc8\v2.00\pic\include\pic16f887.h"
   632                           TRISC equ 087h ;# 
   633  0087                     # 1604 "C:\Program Files (x86)\Microchip\xc8\v2.00\pic\include\pic16f887.h"
   634                           TRISD equ 088h ;# 
   635  0088                     # 1666 "C:\Program Files (x86)\Microchip\xc8\v2.00\pic\include\pic16f887.h"
   636                           TRISE equ 089h ;# 
   637  0089                     # 1704 "C:\Program Files (x86)\Microchip\xc8\v2.00\pic\include\pic16f887.h"
   638                           PIE1 equ 08Ch ;# 
   639  008C                     # 1760 "C:\Program Files (x86)\Microchip\xc8\v2.00\pic\include\pic16f887.h"
   640                           PIE2 equ 08Dh ;# 
   641  008D                     # 1817 "C:\Program Files (x86)\Microchip\xc8\v2.00\pic\include\pic16f887.h"
   642                           PCON equ 08Eh ;# 
   643  008E                     # 1864 "C:\Program Files (x86)\Microchip\xc8\v2.00\pic\include\pic16f887.h"
   644                           OSCCON equ 08Fh ;# 
   645  008F                     # 1929 "C:\Program Files (x86)\Microchip\xc8\v2.00\pic\include\pic16f887.h"
   646                           OSCTUNE equ 090h ;# 
   647  0090                     # 1981 "C:\Program Files (x86)\Microchip\xc8\v2.00\pic\include\pic16f887.h"
   648                           SSPCON2 equ 091h ;# 
   649  0091                     # 2043 "C:\Program Files (x86)\Microchip\xc8\v2.00\pic\include\pic16f887.h"
   650                           PR2 equ 092h ;# 
   651  0092                     # 2050 "C:\Program Files (x86)\Microchip\xc8\v2.00\pic\include\pic16f887.h"
   652                           SSPADD equ 093h ;# 
   653  0093                     # 2057 "C:\Program Files (x86)\Microchip\xc8\v2.00\pic\include\pic16f887.h"
   654                           SSPMSK equ 093h ;# 
   655  0093                     # 2062 "C:\Program Files (x86)\Microchip\xc8\v2.00\pic\include\pic16f887.h"
   656                           MSK equ 093h ;# 
   657  0093                     # 2179 "C:\Program Files (x86)\Microchip\xc8\v2.00\pic\include\pic16f887.h"
   658                           SSPSTAT equ 094h ;# 
   659  0094                     # 2348 "C:\Program Files (x86)\Microchip\xc8\v2.00\pic\include\pic16f887.h"
   660                           WPUB equ 095h ;# 
   661  0095                     # 2418 "C:\Program Files (x86)\Microchip\xc8\v2.00\pic\include\pic16f887.h"
   662                           IOCB equ 096h ;# 
   663  0096                     # 2488 "C:\Program Files (x86)\Microchip\xc8\v2.00\pic\include\pic16f887.h"
   664                           VRCON equ 097h ;# 
   665  0097                     # 2558 "C:\Program Files (x86)\Microchip\xc8\v2.00\pic\include\pic16f887.h"
   666                           TXSTA equ 098h ;# 
   667  0098                     # 2644 "C:\Program Files (x86)\Microchip\xc8\v2.00\pic\include\pic16f887.h"
   668                           SPBRG equ 099h ;# 
   669  0099                     # 2706 "C:\Program Files (x86)\Microchip\xc8\v2.00\pic\include\pic16f887.h"
   670                           SPBRGH equ 09Ah ;# 
   671  009A                     # 2776 "C:\Program Files (x86)\Microchip\xc8\v2.00\pic\include\pic16f887.h"
   672                           PWM1CON equ 09Bh ;# 
   673  009B                     # 2846 "C:\Program Files (x86)\Microchip\xc8\v2.00\pic\include\pic16f887.h"
   674                           ECCPAS equ 09Ch ;# 
   675  009C                     # 2928 "C:\Program Files (x86)\Microchip\xc8\v2.00\pic\include\pic16f887.h"
   676                           PSTRCON equ 09Dh ;# 
   677  009D                     # 2972 "C:\Program Files (x86)\Microchip\xc8\v2.00\pic\include\pic16f887.h"
   678                           ADRESL equ 09Eh ;# 
   679  009E                     # 2979 "C:\Program Files (x86)\Microchip\xc8\v2.00\pic\include\pic16f887.h"
   680                           ADCON1 equ 09Fh ;# 
   681  009F                     # 3013 "C:\Program Files (x86)\Microchip\xc8\v2.00\pic\include\pic16f887.h"
   682                           WDTCON equ 0105h ;# 
   683  0105                     # 3066 "C:\Program Files (x86)\Microchip\xc8\v2.00\pic\include\pic16f887.h"
   684                           CM1CON0 equ 0107h ;# 
   685  0107                     # 3131 "C:\Program Files (x86)\Microchip\xc8\v2.00\pic\include\pic16f887.h"
   686                           CM2CON0 equ 0108h ;# 
   687  0108                     # 3196 "C:\Program Files (x86)\Microchip\xc8\v2.00\pic\include\pic16f887.h"
   688                           CM2CON1 equ 0109h ;# 
   689  0109                     # 3247 "C:\Program Files (x86)\Microchip\xc8\v2.00\pic\include\pic16f887.h"
   690                           EEDATA equ 010Ch ;# 
   691  010C                     # 3252 "C:\Program Files (x86)\Microchip\xc8\v2.00\pic\include\pic16f887.h"
   692                           EEDAT equ 010Ch ;# 
   693  010C                     # 3259 "C:\Program Files (x86)\Microchip\xc8\v2.00\pic\include\pic16f887.h"
   694                           EEADR equ 010Dh ;# 
   695  010D                     # 3266 "C:\Program Files (x86)\Microchip\xc8\v2.00\pic\include\pic16f887.h"
   696                           EEDATH equ 010Eh ;# 
   697  010E                     # 3273 "C:\Program Files (x86)\Microchip\xc8\v2.00\pic\include\pic16f887.h"
   698                           EEADRH equ 010Fh ;# 
   699  010F                     # 3280 "C:\Program Files (x86)\Microchip\xc8\v2.00\pic\include\pic16f887.h"
   700                           SRCON equ 0185h ;# 
   701  0185                     # 3337 "C:\Program Files (x86)\Microchip\xc8\v2.00\pic\include\pic16f887.h"
   702                           BAUDCTL equ 0187h ;# 
   703  0187                     # 3389 "C:\Program Files (x86)\Microchip\xc8\v2.00\pic\include\pic16f887.h"
   704                           ANSEL equ 0188h ;# 
   705  0188                     # 3451 "C:\Program Files (x86)\Microchip\xc8\v2.00\pic\include\pic16f887.h"
   706                           ANSELH equ 0189h ;# 
   707  0189                     # 3501 "C:\Program Files (x86)\Microchip\xc8\v2.00\pic\include\pic16f887.h"
   708                           EECON1 equ 018Ch ;# 
   709  018C                     # 3546 "C:\Program Files (x86)\Microchip\xc8\v2.00\pic\include\pic16f887.h"
   710                           EECON2 equ 018Dh ;# 
   711  018D                     	FNCALL	_main,___fladd
   712                           	FNCALL	_main,___fldiv
   713                           	FNCALL	_main,___flmul
   714                           	FNCALL	_main,___flneg
   715                           	FNCALL	_main,___fltol
   716                           	FNCALL	_main,___xxtofl
   717                           	FNCALL	_main,_initUSART
   718                           	FNCALL	_main,_sendUSART
   719                           	FNCALL	_main,_setup
   720                           	FNCALL	_main,_spiRead
   721                           	FNCALL	_main,_spiWrite
   722                           	FNCALL	_spiRead,_spiReceiveWait
   723                           	FNCALL	_setup,_spiInit
   724                           	FNCALL	___flmul,__Umul8_16
   725                           	FNROOT	_main
   726                           	FNCALL	intlevel1,_ISR
   727                           	global	intlevel1
   728                           	FNROOT	intlevel1
   729                           	global	_entero2
   730                           	global	_entero1
   731                           	global	_sensor1
   732                           	global	_dec2
   733                           	global	_dec1
   734                           	global	_sensor2
   735                           	global	_sensorF2
   736                           	global	_sensorF1
   737                           	global	_float2
   738                           	global	_float1
   739                           	global	_TXREG
   740                           _TXREG	set	0x19
   741  0019                     	global	_INTCONbits
   742                           _INTCONbits	set	0xB
   743  000B                     	global	_RCSTAbits
   744                           _RCSTAbits	set	0x18
   745  0018                     	global	_SSPBUF
   746                           _SSPBUF	set	0x13
   747  0013                     	global	_SSPCON
   748                           _SSPCON	set	0x14
   749  0014                     	global	_PORTCbits
   750                           _PORTCbits	set	0x7
   751  0007                     	global	_PORTD
   752                           _PORTD	set	0x8
   753  0008                     	global	_RCREG
   754                           _RCREG	set	0x1A
   755  001A                     	global	_PORTB
   756                           _PORTB	set	0x6
   757  0006                     	global	_PORTAbits
   758                           _PORTAbits	set	0x5
   759  0005                     	global	_PIR1bits
   760                           _PIR1bits	set	0xC
   761  000C                     	global	_SPBRGH
   762                           _SPBRGH	set	0x9A
   763  009A                     	global	_SPBRG
   764                           _SPBRG	set	0x99
   765  0099                     	global	_TXSTAbits
   766                           _TXSTAbits	set	0x98
   767  0098                     	global	_PIE1bits
   768                           _PIE1bits	set	0x8C
   769  008C                     	global	_SSPSTATbits
   770                           _SSPSTATbits	set	0x94
   771  0094                     	global	_SSPSTAT
   772                           _SSPSTAT	set	0x94
   773  0094                     	global	_TRISD
   774                           _TRISD	set	0x88
   775  0088                     	global	_TRISB
   776                           _TRISB	set	0x86
   777  0086                     	global	_TRISA
   778                           _TRISA	set	0x85
   779  0085                     	global	_TRISCbits
   780                           _TRISCbits	set	0x87
   781  0087                     	global	_TRISC3
   782                           _TRISC3	set	0x43B
   783  043B                     	global	_TRISC5
   784                           _TRISC5	set	0x43D
   785  043D                     	global	_TRISC2
   786                           _TRISC2	set	0x43A
   787  043A                     	global	_BAUDCTLbits
   788                           _BAUDCTLbits	set	0x187
   789  0187                     	global	_ANSELH
   790                           _ANSELH	set	0x189
   791  0189                     	global	_ANSEL
   792                           _ANSEL	set	0x188
   793  0188                     ; #config settings
   794                           global __CFG_FOSC$INTRC_NOCLKOUT
   795                           __CFG_FOSC$INTRC_NOCLKOUT equ 0x0
   796  0000                     global __CFG_WDTE$OFF
   797                           __CFG_WDTE$OFF equ 0x0
   798  0000                     global __CFG_PWRTE$OFF
   799                           __CFG_PWRTE$OFF equ 0x0
   800  0000                     global __CFG_MCLRE$OFF
   801                           __CFG_MCLRE$OFF equ 0x0
   802  0000                     global __CFG_CP$OFF
   803                           __CFG_CP$OFF equ 0x0
   804  0000                     global __CFG_CPD$OFF
   805                           __CFG_CPD$OFF equ 0x0
   806  0000                     global __CFG_BOREN$OFF
   807                           __CFG_BOREN$OFF equ 0x0
   808  0000                     global __CFG_IESO$OFF
   809                           __CFG_IESO$OFF equ 0x0
   810  0000                     global __CFG_FCMEN$OFF
   811                           __CFG_FCMEN$OFF equ 0x0
   812  0000                     global __CFG_LVP$OFF
   813                           __CFG_LVP$OFF equ 0x0
   814  0000                     global __CFG_BOR4V$BOR40V
   815                           __CFG_BOR4V$BOR40V equ 0x0
   816  0000                     global __CFG_WRT$OFF
   817                           __CFG_WRT$OFF equ 0x0
   818  0000                     	file	"C:\Users\JIRS0129\AppData\Local\Temp\sefo."
   819                           	line	#
   820                           psect cinit,class=CODE,delta=2
   821                           global start_initialization
   822                           start_initialization:
   823  000F                     
   824                           global __initialization
   825                           __initialization:
   826  000F                     psect	bssCOMMON,class=COMMON,space=1,noexec
   827                           global __pbssCOMMON
   828                           __pbssCOMMON:
   829  0078                     _entero2:
   830  0078                            ds      1
   831  0078                     
   832                           _entero1:
   833  0079                            ds      1
   834  0079                     
   835                           _sensor1:
   836  007A                            ds      1
   837  007A                     
   838                           psect	bssBANK0,class=BANK0,space=1,noexec
   839                           global __pbssBANK0
   840                           __pbssBANK0:
   841  006D                     _dec2:
   842  006D                            ds      1
   843  006D                     
   844                           _dec1:
   845  006E                            ds      1
   846  006E                     
   847                           _sensor2:
   848  006F                            ds      1
   849  006F                     
   850                           psect	bssBANK1,class=BANK1,space=1,noexec
   851                           global __pbssBANK1
   852                           __pbssBANK1:
   853  00B1                     _sensorF2:
   854  00B1                            ds      4
   855  00B1                     
   856                           _sensorF1:
   857  00B5                            ds      4
   858  00B5                     
   859                           _float2:
   860  00B9                            ds      4
   861  00B9                     
   862                           _float1:
   863  00BD                            ds      4
   864  00BD                     
   865                           	file	"C:\Users\JIRS0129\AppData\Local\Temp\sefo."
   866                           	line	#
   867                           psect clrtext,class=CODE,delta=2
   868                           global clear_ram0
   869                           ;	Called with FSR containing the base address, and
   870                           ;	W with the last address+1
   871                           clear_ram0:
   872  09CE                     	clrwdt			;clear the watchdog before getting into this loop
   873  09CE  0064               clrloop0:
   874  09CF                     	clrf	indf		;clear RAM location pointed to by FSR
   875  09CF  0180               	incf	fsr,f		;increment pointer
   876  09D0  0A84               	xorwf	fsr,w		;XOR with final address
   877  09D1  0604               	btfsc	status,2	;have we reached the end yet?
   878  09D2  1903               	retlw	0		;all done for this memory range, return
   879  09D3  3400               	xorwf	fsr,w		;XOR again to restore value
   880  09D4  0604               	goto	clrloop0		;do the next byte
   881  09D5  29CF               
   882                           ; Clear objects allocated to COMMON
   883                           psect cinit,class=CODE,delta=2,merge=1
   884                           	clrf	((__pbssCOMMON)+0)&07Fh
   885  000F  01F8               	clrf	((__pbssCOMMON)+1)&07Fh
   886  0010  01F9               	clrf	((__pbssCOMMON)+2)&07Fh
   887  0011  01FA               ; Clear objects allocated to BANK0
   888                           psect cinit,class=CODE,delta=2,merge=1
   889                           	bcf	status, 5	;RP0=0, select bank0
   890  0012  1283               	bcf	status, 6	;RP1=0, select bank0
   891  0013  1303               	clrf	((__pbssBANK0)+0)&07Fh
   892  0014  01ED               	clrf	((__pbssBANK0)+1)&07Fh
   893  0015  01EE               	clrf	((__pbssBANK0)+2)&07Fh
   894  0016  01EF               ; Clear objects allocated to BANK1
   895                           psect cinit,class=CODE,delta=2,merge=1
   896                           	bcf	status, 7	;select IRP bank0
   897  0017  1383               	movlw	low(__pbssBANK1)
   898  0018  30B1               	movwf	fsr
   899  0019  0084               	movlw	low((__pbssBANK1)+010h)
   900  001A  30C1               	fcall	clear_ram0
   901  001B  120A  158A  21CE  120A  118A  psect cinit,class=CODE,delta=2,merge=1
   902                           global end_of_initialization,__end_of__initialization
   903                           
   904                           ;End of C runtime variable initialization code
   905                           
   906                           end_of_initialization:
   907  0020                     __end_of__initialization:
   908  0020                     clrf status
   909  0020  0183               ljmp _main	;jump to C main() function
   910  0021  120A  158A  2ABA   psect	cstackBANK1,class=BANK1,space=1,noexec
   911                           global __pcstackBANK1
   912                           __pcstackBANK1:
   913  00A0                     	global	___fldiv@rem
   914                           ___fldiv@rem:	; 4 bytes @ 0x0
   915  00A0                     	ds	4
   916  00A0                     	global	___fldiv@sign
   917                           ___fldiv@sign:	; 1 bytes @ 0x4
   918  00A4                     	ds	1
   919  00A4                     	global	___fldiv@new_exp
   920                           ___fldiv@new_exp:	; 2 bytes @ 0x5
   921  00A5                     	ds	2
   922  00A5                     	global	___fldiv@grs
   923                           ___fldiv@grs:	; 4 bytes @ 0x7
   924  00A7                     	ds	4
   925  00A7                     	global	___fldiv@bexp
   926                           ___fldiv@bexp:	; 1 bytes @ 0xB
   927  00AB                     	ds	1
   928  00AB                     	global	___fldiv@aexp
   929                           ___fldiv@aexp:	; 1 bytes @ 0xC
   930  00AC                     	ds	1
   931  00AC                     ??_main:	; 1 bytes @ 0xD
   932  00AD                     	ds	4
   933  00AD                     psect	cstackCOMMON,class=COMMON,space=1,noexec
   934                           global __pcstackCOMMON
   935                           __pcstackCOMMON:
   936  0070                     ?_setup:	; 1 bytes @ 0x0
   937  0070                     ?_spiWrite:	; 1 bytes @ 0x0
   938  0070                     ?_spiRead:	; 1 bytes @ 0x0
   939  0070                     ?_sendUSART:	; 1 bytes @ 0x0
   940  0070                     ?_ISR:	; 1 bytes @ 0x0
   941  0070                     ??_ISR:	; 1 bytes @ 0x0
   942  0070                     ?_main:	; 1 bytes @ 0x0
   943  0070                     ?_spiReceiveWait:	; 1 bytes @ 0x0
   944  0070                     	ds	2
   945  0070                     ?_initUSART:	; 1 bytes @ 0x2
   946  0072                     ??_spiWrite:	; 1 bytes @ 0x2
   947  0072                     ??_spiRead:	; 1 bytes @ 0x2
   948  0072                     ??_sendUSART:	; 1 bytes @ 0x2
   949  0072                     ?_spiInit:	; 1 bytes @ 0x2
   950  0072                     ??_spiReceiveWait:	; 1 bytes @ 0x2
   951  0072                     	global	?__Umul8_16
   952                           ?__Umul8_16:	; 2 bytes @ 0x2
   953  0072                     	global	?___fltol
   954                           ?___fltol:	; 4 bytes @ 0x2
   955  0072                     	global	?___xxtofl
   956                           ?___xxtofl:	; 4 bytes @ 0x2
   957  0072                     	global	spiInit@sDataSample
   958                           spiInit@sDataSample:	; 1 bytes @ 0x2
   959  0072                     	global	spiWrite@dat
   960                           spiWrite@dat:	; 1 bytes @ 0x2
   961  0072                     	global	sendUSART@data
   962                           sendUSART@data:	; 1 bytes @ 0x2
   963  0072                     	global	__Umul8_16@multiplicand
   964                           __Umul8_16@multiplicand:	; 1 bytes @ 0x2
   965  0072                     	global	initUSART@baudrate
   966                           initUSART@baudrate:	; 2 bytes @ 0x2
   967  0072                     	global	___fltol@f1
   968                           ___fltol@f1:	; 4 bytes @ 0x2
   969  0072                     	global	___xxtofl@val
   970                           ___xxtofl@val:	; 4 bytes @ 0x2
   971  0072                     	ds	1
   972  0072                     	global	spiInit@sClockIdle
   973                           spiInit@sClockIdle:	; 1 bytes @ 0x3
   974  0073                     	ds	1
   975  0073                     ??__Umul8_16:	; 1 bytes @ 0x4
   976  0074                     	global	spiInit@sTransmitEdge
   977                           spiInit@sTransmitEdge:	; 1 bytes @ 0x4
   978  0074                     	global	initUSART@txint
   979                           initUSART@txint:	; 1 bytes @ 0x4
   980  0074                     	ds	1
   981  0074                     ??_spiInit:	; 1 bytes @ 0x5
   982  0075                     	global	spiInit@sType
   983                           spiInit@sType:	; 1 bytes @ 0x5
   984  0075                     	global	initUSART@rcint
   985                           initUSART@rcint:	; 1 bytes @ 0x5
   986  0075                     	ds	1
   987  0075                     ??_setup:	; 1 bytes @ 0x6
   988  0076                     ??___flneg:	; 1 bytes @ 0x6
   989  0076                     	global	initUSART@syncrono
   990                           initUSART@syncrono:	; 1 bytes @ 0x6
   991  0076                     	global	___fltol@sign1
   992                           ___fltol@sign1:	; 1 bytes @ 0x6
   993  0076                     	ds	1
   994  0076                     ??_initUSART:	; 1 bytes @ 0x7
   995  0077                     	global	___fltol@exp1
   996                           ___fltol@exp1:	; 1 bytes @ 0x7
   997  0077                     	ds	1
   998  0077                     psect	cstackBANK0,class=BANK0,space=1,noexec
   999                           global __pcstackBANK0
  1000                           __pcstackBANK0:
  1001  0020                     ??___fltol:	; 1 bytes @ 0x0
  1002  0020                     ??___xxtofl:	; 1 bytes @ 0x0
  1003  0020                     	global	__Umul8_16@product
  1004                           __Umul8_16@product:	; 2 bytes @ 0x0
  1005  0020                     	ds	2
  1006  0020                     	global	__Umul8_16@word_mpld
  1007                           __Umul8_16@word_mpld:	; 2 bytes @ 0x2
  1008  0022                     	ds	2
  1009  0022                     	global	___xxtofl@sign
  1010                           ___xxtofl@sign:	; 1 bytes @ 0x4
  1011  0024                     	global	__Umul8_16@multiplier
  1012                           __Umul8_16@multiplier:	; 1 bytes @ 0x4
  1013  0024                     	ds	1
  1014  0024                     	global	___xxtofl@exp
  1015                           ___xxtofl@exp:	; 1 bytes @ 0x5
  1016  0025                     	ds	1
  1017  0025                     	global	___xxtofl@arg
  1018                           ___xxtofl@arg:	; 4 bytes @ 0x6
  1019  0026                     	ds	4
  1020  0026                     	global	?___flneg
  1021                           ?___flneg:	; 4 bytes @ 0xA
  1022  002A                     	global	___flneg@f1
  1023                           ___flneg@f1:	; 4 bytes @ 0xA
  1024  002A                     	ds	4
  1025  002A                     	global	?___fladd
  1026                           ?___fladd:	; 4 bytes @ 0xE
  1027  002E                     	global	___fladd@b
  1028                           ___fladd@b:	; 4 bytes @ 0xE
  1029  002E                     	ds	4
  1030  002E                     	global	___fladd@a
  1031                           ___fladd@a:	; 4 bytes @ 0x12
  1032  0032                     	ds	4
  1033  0032                     ??___fladd:	; 1 bytes @ 0x16
  1034  0036                     	ds	12
  1035  0036                     	global	___fladd@signs
  1036                           ___fladd@signs:	; 1 bytes @ 0x22
  1037  0042                     	ds	1
  1038  0042                     	global	___fladd@aexp
  1039                           ___fladd@aexp:	; 1 bytes @ 0x23
  1040  0043                     	ds	1
  1041  0043                     	global	___fladd@bexp
  1042                           ___fladd@bexp:	; 1 bytes @ 0x24
  1043  0044                     	ds	1
  1044  0044                     	global	___fladd@grs
  1045                           ___fladd@grs:	; 1 bytes @ 0x25
  1046  0045                     	ds	1
  1047  0045                     	global	?___flmul
  1048                           ?___flmul:	; 4 bytes @ 0x26
  1049  0046                     	global	___flmul@b
  1050                           ___flmul@b:	; 4 bytes @ 0x26
  1051  0046                     	ds	4
  1052  0046                     	global	___flmul@a
  1053                           ___flmul@a:	; 4 bytes @ 0x2A
  1054  004A                     	ds	4
  1055  004A                     ??___flmul:	; 1 bytes @ 0x2E
  1056  004E                     	ds	5
  1057  004E                     	global	___flmul@sign
  1058                           ___flmul@sign:	; 1 bytes @ 0x33
  1059  0053                     	ds	1
  1060  0053                     	global	___flmul@aexp
  1061                           ___flmul@aexp:	; 1 bytes @ 0x34
  1062  0054                     	ds	1
  1063  0054                     	global	___flmul@grs
  1064                           ___flmul@grs:	; 4 bytes @ 0x35
  1065  0055                     	ds	4
  1066  0055                     	global	___flmul@bexp
  1067                           ___flmul@bexp:	; 1 bytes @ 0x39
  1068  0059                     	ds	1
  1069  0059                     	global	___flmul@prod
  1070                           ___flmul@prod:	; 4 bytes @ 0x3A
  1071  005A                     	ds	4
  1072  005A                     	global	___flmul@temp
  1073                           ___flmul@temp:	; 2 bytes @ 0x3E
  1074  005E                     	ds	2
  1075  005E                     	global	?___fldiv
  1076                           ?___fldiv:	; 4 bytes @ 0x40
  1077  0060                     	global	___fldiv@a
  1078                           ___fldiv@a:	; 4 bytes @ 0x40
  1079  0060                     	ds	4
  1080  0060                     	global	___fldiv@b
  1081                           ___fldiv@b:	; 4 bytes @ 0x44
  1082  0064                     	ds	4
  1083  0064                     ??___fldiv:	; 1 bytes @ 0x48
  1084  0068                     	ds	5
  1085  0068                     ;!
  1086                           ;!Data Sizes:
  1087                           ;!    Strings     0
  1088                           ;!    Constant    0
  1089                           ;!    Data        0
  1090                           ;!    BSS         22
  1091                           ;!    Persistent  0
  1092                           ;!    Stack       0
  1093                           ;!
  1094                           ;!Auto Spaces:
  1095                           ;!    Space          Size  Autos    Used
  1096                           ;!    COMMON           14      8      11
  1097                           ;!    BANK0            80     77      80
  1098                           ;!    BANK1            80     17      33
  1099                           ;!    BANK3            96      0       0
  1100                           ;!    BANK2            96      0       0
  1101                           
  1102                           ;!
  1103                           ;!Pointer List with Targets:
  1104                           ;!
  1105                           ;!    None.
  1106                           
  1107                           
  1108                           ;!
  1109                           ;!Critical Paths under _main in COMMON
  1110                           ;!
  1111                           ;!    _main->___fltol
  1112                           ;!    _setup->_spiInit
  1113                           ;!    ___flneg->___xxtofl
  1114                           ;!    ___flmul->__Umul8_16
  1115                           ;!    ___flmul->___xxtofl
  1116                           ;!    ___fldiv->___xxtofl
  1117                           ;!    ___fladd->___xxtofl
  1118                           ;!
  1119                           ;!Critical Paths under _ISR in COMMON
  1120                           ;!
  1121                           ;!    None.
  1122                           ;!
  1123                           ;!Critical Paths under _main in BANK0
  1124                           ;!
  1125                           ;!    _main->___fldiv
  1126                           ;!    ___flneg->___xxtofl
  1127                           ;!    ___flmul->___fladd
  1128                           ;!    ___fldiv->___flmul
  1129                           ;!    ___fladd->___flneg
  1130                           ;!
  1131                           ;!Critical Paths under _ISR in BANK0
  1132                           ;!
  1133                           ;!    None.
  1134                           ;!
  1135                           ;!Critical Paths under _main in BANK1
  1136                           ;!
  1137                           ;!    _main->___fldiv
  1138                           ;!
  1139                           ;!Critical Paths under _ISR in BANK1
  1140                           ;!
  1141                           ;!    None.
  1142                           ;!
  1143                           ;!Critical Paths under _main in BANK3
  1144                           ;!
  1145                           ;!    None.
  1146                           ;!
  1147                           ;!Critical Paths under _ISR in BANK3
  1148                           ;!
  1149                           ;!    None.
  1150                           ;!
  1151                           ;!Critical Paths under _main in BANK2
  1152                           ;!
  1153                           ;!    None.
  1154                           ;!
  1155                           ;!Critical Paths under _ISR in BANK2
  1156                           ;!
  1157                           ;!    None.
  1158                           
  1159 ;;
  1160 ;;Main: autosize = 0, tempsize = 4, incstack = 0, save=0
  1161 ;;
  1162                           
  1163                           ;!
  1164                           ;!Call Graph Tables:
  1165                           ;!
  1166                           ;! ---------------------------------------------------------------------------------
  1167                           ;! (Depth) Function   	        Calls       Base Space   Used Autos Params    Refs
  1168                           ;! ---------------------------------------------------------------------------------
  1169                           ;! (0) _main                                                 4     4      0   10548
  1170                           ;!                                             13 BANK1      4     4      0
  1171                           ;!                            ___fladd
  1172                           ;!                            ___fldiv
  1173                           ;!                            ___flmul
  1174                           ;!                            ___flneg
  1175                           ;!                            ___fltol
  1176                           ;!                           ___xxtofl
  1177                           ;!                          _initUSART
  1178                           ;!                          _sendUSART
  1179                           ;!                              _setup
  1180                           ;!                            _spiRead
  1181                           ;!                           _spiWrite
  1182                           ;! ---------------------------------------------------------------------------------
  1183                           ;! (1) _spiWrite                                             1     1      0      22
  1184                           ;!                                              2 COMMON     1     1      0
  1185                           ;! ---------------------------------------------------------------------------------
  1186                           ;! (1) _spiRead                                              0     0      0       0
  1187                           ;!                     _spiReceiveWait
  1188                           ;! ---------------------------------------------------------------------------------
  1189                           ;! (2) _spiReceiveWait                                       0     0      0       0
  1190                           ;! ---------------------------------------------------------------------------------
  1191                           ;! (1) _setup                                                0     0      0     360
  1192                           ;!                            _spiInit
  1193                           ;! ---------------------------------------------------------------------------------
  1194                           ;! (2) _spiInit                                              4     1      3     360
  1195                           ;!                                              2 COMMON     4     1      3
  1196                           ;! ---------------------------------------------------------------------------------
  1197                           ;! (1) _sendUSART                                            1     1      0      22
  1198                           ;!                                              2 COMMON     1     1      0
  1199                           ;! ---------------------------------------------------------------------------------
  1200                           ;! (1) _initUSART                                            5     0      5     502
  1201                           ;!                                              2 COMMON     5     0      5
  1202                           ;! ---------------------------------------------------------------------------------
  1203                           ;! (1) ___xxtofl                                            14    10      4     836
  1204                           ;!                                              2 COMMON     4     0      4
  1205                           ;!                                              0 BANK0     10    10      0
  1206                           ;! ---------------------------------------------------------------------------------
  1207                           ;! (1) ___fltol                                             11     7      4     877
  1208                           ;!                                              2 COMMON     6     2      4
  1209                           ;!                                              0 BANK0      5     5      0
  1210                           ;! ---------------------------------------------------------------------------------
  1211                           ;! (1) ___flneg                                              4     0      4     197
  1212                           ;!                                             10 BANK0      4     0      4
  1213                           ;!                           ___xxtofl (ARG)
  1214                           ;! ---------------------------------------------------------------------------------
  1215                           ;! (1) ___flmul                                             26    18      8    3893
  1216                           ;!                                             38 BANK0     26    18      8
  1217                           ;!                          __Umul8_16
  1218                           ;!                            ___fladd (ARG)
  1219                           ;!                            ___flneg (ARG)
  1220                           ;!                           ___xxtofl (ARG)
  1221                           ;! ---------------------------------------------------------------------------------
  1222                           ;! (2) __Umul8_16                                            9     7      2     980
  1223                           ;!                                              2 COMMON     4     2      2
  1224                           ;!                                              0 BANK0      5     5      0
  1225                           ;! ---------------------------------------------------------------------------------
  1226                           ;! (1) ___fldiv                                             26    18      8    1425
  1227                           ;!                                             64 BANK0     13     5      8
  1228                           ;!                                              0 BANK1     13    13      0
  1229                           ;!                            ___flmul (ARG)
  1230                           ;!                           ___xxtofl (ARG)
  1231                           ;! ---------------------------------------------------------------------------------
  1232                           ;! (1) ___fladd                                             24    16      8    2414
  1233                           ;!                                             14 BANK0     24    16      8
  1234                           ;!                            ___flneg (ARG)
  1235                           ;!                           ___xxtofl (ARG)
  1236                           ;! ---------------------------------------------------------------------------------
  1237                           ;! Estimated maximum stack depth 2
  1238                           ;! ---------------------------------------------------------------------------------
  1239                           ;! (Depth) Function   	        Calls       Base Space   Used Autos Params    Refs
  1240                           ;! ---------------------------------------------------------------------------------
  1241                           ;! (3) _ISR                                                  2     2      0       0
  1242                           ;!                                              0 COMMON     2     2      0
  1243                           ;! ---------------------------------------------------------------------------------
  1244                           ;! Estimated maximum stack depth 3
  1245                           ;! ---------------------------------------------------------------------------------
  1246                           ;!
  1247                           ;! Call Graph Graphs:
  1248                           ;!
  1249                           ;! _main (ROOT)
  1250                           ;!   ___fladd
  1251                           ;!     ___flneg (ARG)
  1252                           ;!       ___xxtofl (ARG)
  1253                           ;!     ___xxtofl (ARG)
  1254                           ;!   ___fldiv
  1255                           ;!     ___flmul (ARG)
  1256                           ;!       __Umul8_16
  1257                           ;!       ___fladd (ARG)
  1258                           ;!         ___flneg (ARG)
  1259                           ;!           ___xxtofl (ARG)
  1260                           ;!         ___xxtofl (ARG)
  1261                           ;!       ___flneg (ARG)
  1262                           ;!         ___xxtofl (ARG)
  1263                           ;!       ___xxtofl (ARG)
  1264                           ;!     ___xxtofl (ARG)
  1265                           ;!   ___flmul
  1266                           ;!     __Umul8_16
  1267                           ;!     ___fladd (ARG)
  1268                           ;!       ___flneg (ARG)
  1269                           ;!         ___xxtofl (ARG)
  1270                           ;!       ___xxtofl (ARG)
  1271                           ;!     ___flneg (ARG)
  1272                           ;!       ___xxtofl (ARG)
  1273                           ;!     ___xxtofl (ARG)
  1274                           ;!   ___flneg
  1275                           ;!     ___xxtofl (ARG)
  1276                           ;!   ___fltol
  1277                           ;!   ___xxtofl
  1278                           ;!   _initUSART
  1279                           ;!   _sendUSART
  1280                           ;!   _setup
  1281                           ;!     _spiInit
  1282                           ;!   _spiRead
  1283                           ;!     _spiReceiveWait
  1284                           ;!   _spiWrite
  1285                           ;!
  1286                           ;! _ISR (ROOT)
  1287                           ;!
  1288                           
  1289                           ;! Address spaces:
  1290                           
  1291                           ;!Name               Size   Autos  Total    Cost      Usage
  1292                           ;!BITCOMMON            E      0       0       0        0.0%
  1293                           ;!EEDATA             100      0       0       0        0.0%
  1294                           ;!NULL                 0      0       0       0        0.0%
  1295                           ;!CODE                 0      0       0       0        0.0%
  1296                           ;!COMMON               E      8       B       1       78.6%
  1297                           ;!BITSFR0              0      0       0       1        0.0%
  1298                           ;!SFR0                 0      0       0       1        0.0%
  1299                           ;!BITSFR1              0      0       0       2        0.0%
  1300                           ;!SFR1                 0      0       0       2        0.0%
  1301                           ;!STACK                0      0       0       2        0.0%
  1302                           ;!ABS                  0      0      7C       3        0.0%
  1303                           ;!BITBANK0            50      0       0       4        0.0%
  1304                           ;!BITSFR3              0      0       0       4        0.0%
  1305                           ;!SFR3                 0      0       0       4        0.0%
  1306                           ;!BANK0               50     4D      50       5      100.0%
  1307                           ;!BITSFR2              0      0       0       5        0.0%
  1308                           ;!SFR2                 0      0       0       5        0.0%
  1309                           ;!BITBANK1            50      0       0       6        0.0%
  1310                           ;!BANK1               50     11      21       7       41.3%
  1311                           ;!BITBANK3            60      0       0       8        0.0%
  1312                           ;!BANK3               60      0       0       9        0.0%
  1313                           ;!BITBANK2            60      0       0      10        0.0%
  1314                           ;!BANK2               60      0       0      11        0.0%
  1315                           ;!DATA                 0      0      7C      12        0.0%
  1316                           
  1317                           	global	_main
  1318                           
  1319 ;; *************** function _main *****************
  1320 ;; Defined at:
  1321 ;;		line 64 in file "mainM.c"
  1322 ;; Parameters:    Size  Location     Type
  1323 ;;		None
  1324 ;; Auto vars:     Size  Location     Type
  1325 ;;		None
  1326 ;; Return value:  Size  Location     Type
  1327 ;;                  1    wreg      void 
  1328 ;; Registers used:
  1329 ;;		wreg, status,2, status,0, btemp+1, pclath, cstack
  1330 ;; Tracked objects:
  1331 ;;		On entry : B00/0
  1332 ;;		On exit  : 0/0
  1333 ;;		Unchanged: 0/0
  1334 ;; Data sizes:     COMMON   BANK0   BANK1   BANK3   BANK2
  1335 ;;      Params:         0       0       0       0       0
  1336 ;;      Locals:         0       0       0       0       0
  1337 ;;      Temps:          0       0       4       0       0
  1338 ;;      Totals:         0       0       4       0       0
  1339 ;;Total ram usage:        4 bytes
  1340 ;; Hardware stack levels required when called:    3
  1341 ;; This function calls:
  1342 ;;		___fladd
  1343 ;;		___fldiv
  1344 ;;		___flmul
  1345 ;;		___flneg
  1346 ;;		___fltol
  1347 ;;		___xxtofl
  1348 ;;		_initUSART
  1349 ;;		_sendUSART
  1350 ;;		_setup
  1351 ;;		_spiRead
  1352 ;;		_spiWrite
  1353 ;; This function is called by:
  1354 ;;		Startup code after reset
  1355 ;; This function uses a non-reentrant model
  1356 ;;
  1357                           psect	maintext,global,class=CODE,delta=2,split=1,group=0
  1358                           	file	"mainM.c"
  1359                           	line	64
  1360                           global __pmaintext
  1361                           __pmaintext:	;psect for function _main
  1362  0ABA                     psect	maintext
  1363                           	file	"mainM.c"
  1364                           	line	64
  1365                           	global	__size_of_main
  1366                           	__size_of_main	equ	__end_of_main-_main
  1367  028A                     	
  1368                           _main:	
  1369  0ABA                     ;incstack = 0
  1370                           	opt	stack 5
  1371                           ; Regs used in _main: [wreg+status,2+status,0+btemp+1+pclath+cstack]
  1372                           	line	65
  1373                           	
  1374                           l2364:	
  1375  0ABA                     ;mainM.c: 65:     setup();
  1376                           	fcall	_setup
  1377  0ABA  120A  158A  2223  120A  158A  	line	66
  1378                           ;mainM.c: 66:     initUSART(9600, 1, 1, 0);
  1379                           	movlw	080h
  1380  0ABF  3080               	movwf	(initUSART@baudrate)
  1381  0AC0  00F2               	movlw	025h
  1382  0AC1  3025               	movwf	((initUSART@baudrate))+1
  1383  0AC2  00F3               	clrf	(initUSART@txint)
  1384  0AC3  01F4               	incf	(initUSART@txint),f
  1385  0AC4  0AF4               	clrf	(initUSART@rcint)
  1386  0AC5  01F5               	incf	(initUSART@rcint),f
  1387  0AC6  0AF5               	clrf	(initUSART@syncrono)
  1388  0AC7  01F6               	fcall	_initUSART
  1389  0AC8  120A  158A  223F  120A  158A  	line	70
  1390                           ;mainM.c: 70:     while(1){
  1391                           	
  1392                           l71:	
  1393  0ACD                     	line	78
  1394                           ;mainM.c: 78:        spiWrite(1);
  1395                           	movlw	low(01h)
  1396  0ACD  3001               	fcall	_spiWrite
  1397  0ACE  120A  158A  21C8  120A  158A  	line	79
  1398                           ;mainM.c: 79:        sensor1 = spiRead();
  1399                           	fcall	_spiRead
  1400  0AD3  120A  118A  27F3  120A  158A  	bsf	status, 5	;RP0=1, select bank1
  1401  0AD8  1683               	bcf	status, 6	;RP1=0, select bank1
  1402  0AD9  1303               	movwf	(??_main+0)^080h+0
  1403  0ADA  00AD               	movf	(??_main+0)^080h+0,w
  1404  0ADB  082D               	movwf	(_sensor1)
  1405  0ADC  00FA               	line	81
  1406                           	
  1407                           l2366:	
  1408  0ADD                     ;mainM.c: 81:        _delay((unsigned long)((10)*(4000000/4000.0)));
  1409                           	opt asmopt_push
  1410                           opt asmopt_off
  1411                           movlw	13
  1412  0ADD  300D               	bsf	status, 5	;RP0=1, select bank1
  1413  0ADE  1683               	bcf	status, 6	;RP1=0, select bank1
  1414  0ADF  1303               movwf	((??_main+0)^080h+0+1),f
  1415  0AE0  00AE               	movlw	251
  1416  0AE1  30FB               movwf	((??_main+0)^080h+0),f
  1417  0AE2  00AD               	u3697:
  1418  0AE3                     decfsz	((??_main+0)^080h+0),f
  1419  0AE3  0BAD               	goto	u3697
  1420  0AE4  2AE3               	decfsz	((??_main+0)^080h+0+1),f
  1421  0AE5  0BAE               	goto	u3697
  1422  0AE6  2AE3               opt asmopt_pop
  1423                           
  1424                           	line	84
  1425                           	
  1426                           l2368:	
  1427  0AE7                     ;mainM.c: 84:        spiWrite(2);
  1428                           	movlw	low(02h)
  1429  0AE7  3002               	fcall	_spiWrite
  1430  0AE8  120A  158A  21C8  120A  158A  	line	85
  1431                           	
  1432                           l2370:	
  1433  0AED                     ;mainM.c: 85:        sensor2 = spiRead();
  1434                           	fcall	_spiRead
  1435  0AED  120A  118A  27F3  120A  158A  	bsf	status, 5	;RP0=1, select bank1
  1436  0AF2  1683               	bcf	status, 6	;RP1=0, select bank1
  1437  0AF3  1303               	movwf	(??_main+0)^080h+0
  1438  0AF4  00AD               	movf	(??_main+0)^080h+0,w
  1439  0AF5  082D               	bcf	status, 5	;RP0=0, select bank0
  1440  0AF6  1283               	bcf	status, 6	;RP1=0, select bank0
  1441  0AF7  1303               	movwf	(_sensor2)
  1442  0AF8  00EF               	line	87
  1443                           	
  1444                           l2372:	
  1445  0AF9                     ;mainM.c: 87:        _delay((unsigned long)((10)*(4000000/4000.0)));
  1446                           	opt asmopt_push
  1447                           opt asmopt_off
  1448                           movlw	13
  1449  0AF9  300D               	bsf	status, 5	;RP0=1, select bank1
  1450  0AFA  1683               	bcf	status, 6	;RP1=0, select bank1
  1451  0AFB  1303               movwf	((??_main+0)^080h+0+1),f
  1452  0AFC  00AE               	movlw	251
  1453  0AFD  30FB               movwf	((??_main+0)^080h+0),f
  1454  0AFE  00AD               	u3707:
  1455  0AFF                     decfsz	((??_main+0)^080h+0),f
  1456  0AFF  0BAD               	goto	u3707
  1457  0B00  2AFF               	decfsz	((??_main+0)^080h+0+1),f
  1458  0B01  0BAE               	goto	u3707
  1459  0B02  2AFF               opt asmopt_pop
  1460                           
  1461                           	line	91
  1462                           	
  1463                           l2374:	
  1464  0B03                     ;mainM.c: 91:         sensorF1 = (float) sensor1 * 5/255;
  1465                           	movlw	0x43
  1466  0B03  3043               	bcf	status, 5	;RP0=0, select bank0
  1467  0B04  1283               	bcf	status, 6	;RP1=0, select bank0
  1468  0B05  1303               	movwf	(___fldiv@a+3)
  1469  0B06  00E3               	movlw	0x7f
  1470  0B07  307F               	movwf	(___fldiv@a+2)
  1471  0B08  00E2               	movlw	0x0
  1472  0B09  3000               	movwf	(___fldiv@a+1)
  1473  0B0A  00E1               	movlw	0x0
  1474  0B0B  3000               	movwf	(___fldiv@a)
  1475  0B0C  00E0               
  1476                           	movlw	0x40
  1477  0B0D  3040               	movwf	(___flmul@b+3)
  1478  0B0E  00C9               	movlw	0xa0
  1479  0B0F  30A0               	movwf	(___flmul@b+2)
  1480  0B10  00C8               	movlw	0x0
  1481  0B11  3000               	movwf	(___flmul@b+1)
  1482  0B12  00C7               	movlw	0x0
  1483  0B13  3000               	movwf	(___flmul@b)
  1484  0B14  00C6               
  1485                           	movf	(_sensor1),w
  1486  0B15  087A               	bsf	status, 5	;RP0=1, select bank1
  1487  0B16  1683               	bcf	status, 6	;RP1=0, select bank1
  1488  0B17  1303               	movwf	(??_main+0)^080h+0
  1489  0B18  00AD               	clrf	(??_main+0)^080h+0+1
  1490  0B19  01AE               	clrf	(??_main+0)^080h+0+2
  1491  0B1A  01AF               	clrf	(??_main+0)^080h+0+3
  1492  0B1B  01B0               	movf	3+(??_main+0)^080h+0,w
  1493  0B1C  0830               	movwf	(___xxtofl@val+3)
  1494  0B1D  00F5               	movf	2+(??_main+0)^080h+0,w
  1495  0B1E  082F               	movwf	(___xxtofl@val+2)
  1496  0B1F  00F4               	movf	1+(??_main+0)^080h+0,w
  1497  0B20  082E               	movwf	(___xxtofl@val+1)
  1498  0B21  00F3               	movf	0+(??_main+0)^080h+0,w
  1499  0B22  082D               	movwf	(___xxtofl@val)
  1500  0B23  00F2               
  1501                           	movlw	low(0)
  1502  0B24  3000               	fcall	___xxtofl
  1503  0B25  120A  118A  2667  120A  158A  	movf	(3+(?___xxtofl)),w
  1504  0B2A  0875               	bcf	status, 5	;RP0=0, select bank0
  1505  0B2B  1283               	bcf	status, 6	;RP1=0, select bank0
  1506  0B2C  1303               	movwf	(___flmul@a+3)
  1507  0B2D  00CD               	movf	(2+(?___xxtofl)),w
  1508  0B2E  0874               	movwf	(___flmul@a+2)
  1509  0B2F  00CC               	movf	(1+(?___xxtofl)),w
  1510  0B30  0873               	movwf	(___flmul@a+1)
  1511  0B31  00CB               	movf	(0+(?___xxtofl)),w
  1512  0B32  0872               	movwf	(___flmul@a)
  1513  0B33  00CA               
  1514                           	fcall	___flmul
  1515  0B34  120A  118A  2024  120A  158A  	bcf	status, 5	;RP0=0, select bank0
  1516  0B39  1283               	bcf	status, 6	;RP1=0, select bank0
  1517  0B3A  1303               	movf	(3+(?___flmul)),w
  1518  0B3B  0849               	movwf	(___fldiv@b+3)
  1519  0B3C  00E7               	movf	(2+(?___flmul)),w
  1520  0B3D  0848               	movwf	(___fldiv@b+2)
  1521  0B3E  00E6               	movf	(1+(?___flmul)),w
  1522  0B3F  0847               	movwf	(___fldiv@b+1)
  1523  0B40  00E5               	movf	(0+(?___flmul)),w
  1524  0B41  0846               	movwf	(___fldiv@b)
  1525  0B42  00E4               
  1526                           	fcall	___fldiv
  1527  0B43  120A  118A  2399  120A  158A  	bcf	status, 5	;RP0=0, select bank0
  1528  0B48  1283               	bcf	status, 6	;RP1=0, select bank0
  1529  0B49  1303               	movf	(3+(?___fldiv)),w
  1530  0B4A  0863               	bsf	status, 5	;RP0=1, select bank1
  1531  0B4B  1683               	bcf	status, 6	;RP1=0, select bank1
  1532  0B4C  1303               	movwf	(_sensorF1+3)^080h
  1533  0B4D  00B8               	bcf	status, 5	;RP0=0, select bank0
  1534  0B4E  1283               	bcf	status, 6	;RP1=0, select bank0
  1535  0B4F  1303               	movf	(2+(?___fldiv)),w
  1536  0B50  0862               	bsf	status, 5	;RP0=1, select bank1
  1537  0B51  1683               	bcf	status, 6	;RP1=0, select bank1
  1538  0B52  1303               	movwf	(_sensorF1+2)^080h
  1539  0B53  00B7               	bcf	status, 5	;RP0=0, select bank0
  1540  0B54  1283               	bcf	status, 6	;RP1=0, select bank0
  1541  0B55  1303               	movf	(1+(?___fldiv)),w
  1542  0B56  0861               	bsf	status, 5	;RP0=1, select bank1
  1543  0B57  1683               	bcf	status, 6	;RP1=0, select bank1
  1544  0B58  1303               	movwf	(_sensorF1+1)^080h
  1545  0B59  00B6               	bcf	status, 5	;RP0=0, select bank0
  1546  0B5A  1283               	bcf	status, 6	;RP1=0, select bank0
  1547  0B5B  1303               	movf	(0+(?___fldiv)),w
  1548  0B5C  0860               	bsf	status, 5	;RP0=1, select bank1
  1549  0B5D  1683               	bcf	status, 6	;RP1=0, select bank1
  1550  0B5E  1303               	movwf	(_sensorF1)^080h
  1551  0B5F  00B5               
  1552                           	line	92
  1553                           	
  1554                           l2376:	
  1555  0B60                     ;mainM.c: 92:         entero1 = (int) sensorF1;
  1556                           	movf	(_sensorF1+3)^080h,w
  1557  0B60  0838               	movwf	(___fltol@f1+3)
  1558  0B61  00F5               	movf	(_sensorF1+2)^080h,w
  1559  0B62  0837               	movwf	(___fltol@f1+2)
  1560  0B63  00F4               	movf	(_sensorF1+1)^080h,w
  1561  0B64  0836               	movwf	(___fltol@f1+1)
  1562  0B65  00F3               	movf	(_sensorF1)^080h,w
  1563  0B66  0835               	movwf	(___fltol@f1)
  1564  0B67  00F2               
  1565                           	fcall	___fltol
  1566  0B68  120A  118A  272B  120A  158A  	movf	(0+(?___fltol)),w
  1567  0B6D  0872               	bsf	status, 5	;RP0=1, select bank1
  1568  0B6E  1683               	bcf	status, 6	;RP1=0, select bank1
  1569  0B6F  1303               	movwf	(??_main+0)^080h+0
  1570  0B70  00AD               	movf	(??_main+0)^080h+0,w
  1571  0B71  082D               	movwf	(_entero1)
  1572  0B72  00F9               	line	93
  1573                           ;mainM.c: 93:         float1 = (sensorF1 - entero1)*100;
  1574                           	movlw	0x42
  1575  0B73  3042               	bcf	status, 5	;RP0=0, select bank0
  1576  0B74  1283               	bcf	status, 6	;RP1=0, select bank0
  1577  0B75  1303               	movwf	(___flmul@b+3)
  1578  0B76  00C9               	movlw	0xc8
  1579  0B77  30C8               	movwf	(___flmul@b+2)
  1580  0B78  00C8               	movlw	0x0
  1581  0B79  3000               	movwf	(___flmul@b+1)
  1582  0B7A  00C7               	movlw	0x0
  1583  0B7B  3000               	movwf	(___flmul@b)
  1584  0B7C  00C6               
  1585                           	bsf	status, 5	;RP0=1, select bank1
  1586  0B7D  1683               	bcf	status, 6	;RP1=0, select bank1
  1587  0B7E  1303               	movf	(_sensorF1+3)^080h,w
  1588  0B7F  0838               	bcf	status, 5	;RP0=0, select bank0
  1589  0B80  1283               	bcf	status, 6	;RP1=0, select bank0
  1590  0B81  1303               	movwf	(___fladd@b+3)
  1591  0B82  00B1               	bsf	status, 5	;RP0=1, select bank1
  1592  0B83  1683               	bcf	status, 6	;RP1=0, select bank1
  1593  0B84  1303               	movf	(_sensorF1+2)^080h,w
  1594  0B85  0837               	bcf	status, 5	;RP0=0, select bank0
  1595  0B86  1283               	bcf	status, 6	;RP1=0, select bank0
  1596  0B87  1303               	movwf	(___fladd@b+2)
  1597  0B88  00B0               	bsf	status, 5	;RP0=1, select bank1
  1598  0B89  1683               	bcf	status, 6	;RP1=0, select bank1
  1599  0B8A  1303               	movf	(_sensorF1+1)^080h,w
  1600  0B8B  0836               	bcf	status, 5	;RP0=0, select bank0
  1601  0B8C  1283               	bcf	status, 6	;RP1=0, select bank0
  1602  0B8D  1303               	movwf	(___fladd@b+1)
  1603  0B8E  00AF               	bsf	status, 5	;RP0=1, select bank1
  1604  0B8F  1683               	bcf	status, 6	;RP1=0, select bank1
  1605  0B90  1303               	movf	(_sensorF1)^080h,w
  1606  0B91  0835               	bcf	status, 5	;RP0=0, select bank0
  1607  0B92  1283               	bcf	status, 6	;RP1=0, select bank0
  1608  0B93  1303               	movwf	(___fladd@b)
  1609  0B94  00AE               
  1610                           	movf	(_entero1),w
  1611  0B95  0879               	bsf	status, 5	;RP0=1, select bank1
  1612  0B96  1683               	bcf	status, 6	;RP1=0, select bank1
  1613  0B97  1303               	movwf	(??_main+0)^080h+0
  1614  0B98  00AD               	clrf	(??_main+0)^080h+0+1
  1615  0B99  01AE               	clrf	(??_main+0)^080h+0+2
  1616  0B9A  01AF               	clrf	(??_main+0)^080h+0+3
  1617  0B9B  01B0               	movf	3+(??_main+0)^080h+0,w
  1618  0B9C  0830               	movwf	(___xxtofl@val+3)
  1619  0B9D  00F5               	movf	2+(??_main+0)^080h+0,w
  1620  0B9E  082F               	movwf	(___xxtofl@val+2)
  1621  0B9F  00F4               	movf	1+(??_main+0)^080h+0,w
  1622  0BA0  082E               	movwf	(___xxtofl@val+1)
  1623  0BA1  00F3               	movf	0+(??_main+0)^080h+0,w
  1624  0BA2  082D               	movwf	(___xxtofl@val)
  1625  0BA3  00F2               
  1626                           	movlw	low(01h)
  1627  0BA4  3001               	fcall	___xxtofl
  1628  0BA5  120A  118A  2667  120A  158A  	movf	(3+(?___xxtofl)),w
  1629  0BAA  0875               	bcf	status, 5	;RP0=0, select bank0
  1630  0BAB  1283               	bcf	status, 6	;RP1=0, select bank0
  1631  0BAC  1303               	movwf	(___flneg@f1+3)
  1632  0BAD  00AD               	movf	(2+(?___xxtofl)),w
  1633  0BAE  0874               	movwf	(___flneg@f1+2)
  1634  0BAF  00AC               	movf	(1+(?___xxtofl)),w
  1635  0BB0  0873               	movwf	(___flneg@f1+1)
  1636  0BB1  00AB               	movf	(0+(?___xxtofl)),w
  1637  0BB2  0872               	movwf	(___flneg@f1)
  1638  0BB3  00AA               
  1639                           	fcall	___flneg
  1640  0BB4  120A  158A  21ED  120A  158A  	bcf	status, 5	;RP0=0, select bank0
  1641  0BB9  1283               	bcf	status, 6	;RP1=0, select bank0
  1642  0BBA  1303               	movf	(3+(?___flneg)),w
  1643  0BBB  082D               	movwf	(___fladd@a+3)
  1644  0BBC  00B5               	movf	(2+(?___flneg)),w
  1645  0BBD  082C               	movwf	(___fladd@a+2)
  1646  0BBE  00B4               	movf	(1+(?___flneg)),w
  1647  0BBF  082B               	movwf	(___fladd@a+1)
  1648  0BC0  00B3               	movf	(0+(?___flneg)),w
  1649  0BC1  082A               	movwf	(___fladd@a)
  1650  0BC2  00B2               
  1651                           	fcall	___fladd
  1652  0BC3  120A  158A  2544  120A  158A  	bcf	status, 5	;RP0=0, select bank0
  1653  0BC8  1283               	bcf	status, 6	;RP1=0, select bank0
  1654  0BC9  1303               	movf	(3+(?___fladd)),w
  1655  0BCA  0831               	movwf	(___flmul@a+3)
  1656  0BCB  00CD               	movf	(2+(?___fladd)),w
  1657  0BCC  0830               	movwf	(___flmul@a+2)
  1658  0BCD  00CC               	movf	(1+(?___fladd)),w
  1659  0BCE  082F               	movwf	(___flmul@a+1)
  1660  0BCF  00CB               	movf	(0+(?___fladd)),w
  1661  0BD0  082E               	movwf	(___flmul@a)
  1662  0BD1  00CA               
  1663                           	fcall	___flmul
  1664  0BD2  120A  118A  2024  120A  158A  	bcf	status, 5	;RP0=0, select bank0
  1665  0BD7  1283               	bcf	status, 6	;RP1=0, select bank0
  1666  0BD8  1303               	movf	(3+(?___flmul)),w
  1667  0BD9  0849               	bsf	status, 5	;RP0=1, select bank1
  1668  0BDA  1683               	bcf	status, 6	;RP1=0, select bank1
  1669  0BDB  1303               	movwf	(_float1+3)^080h
  1670  0BDC  00C0               	bcf	status, 5	;RP0=0, select bank0
  1671  0BDD  1283               	bcf	status, 6	;RP1=0, select bank0
  1672  0BDE  1303               	movf	(2+(?___flmul)),w
  1673  0BDF  0848               	bsf	status, 5	;RP0=1, select bank1
  1674  0BE0  1683               	bcf	status, 6	;RP1=0, select bank1
  1675  0BE1  1303               	movwf	(_float1+2)^080h
  1676  0BE2  00BF               	bcf	status, 5	;RP0=0, select bank0
  1677  0BE3  1283               	bcf	status, 6	;RP1=0, select bank0
  1678  0BE4  1303               	movf	(1+(?___flmul)),w
  1679  0BE5  0847               	bsf	status, 5	;RP0=1, select bank1
  1680  0BE6  1683               	bcf	status, 6	;RP1=0, select bank1
  1681  0BE7  1303               	movwf	(_float1+1)^080h
  1682  0BE8  00BE               	bcf	status, 5	;RP0=0, select bank0
  1683  0BE9  1283               	bcf	status, 6	;RP1=0, select bank0
  1684  0BEA  1303               	movf	(0+(?___flmul)),w
  1685  0BEB  0846               	bsf	status, 5	;RP0=1, select bank1
  1686  0BEC  1683               	bcf	status, 6	;RP1=0, select bank1
  1687  0BED  1303               	movwf	(_float1)^080h
  1688  0BEE  00BD               
  1689                           	line	94
  1690                           	
  1691                           l2378:	
  1692  0BEF                     ;mainM.c: 94:         dec1 = (int) float1;
  1693                           	movf	(_float1+3)^080h,w
  1694  0BEF  0840               	movwf	(___fltol@f1+3)
  1695  0BF0  00F5               	movf	(_float1+2)^080h,w
  1696  0BF1  083F               	movwf	(___fltol@f1+2)
  1697  0BF2  00F4               	movf	(_float1+1)^080h,w
  1698  0BF3  083E               	movwf	(___fltol@f1+1)
  1699  0BF4  00F3               	movf	(_float1)^080h,w
  1700  0BF5  083D               	movwf	(___fltol@f1)
  1701  0BF6  00F2               
  1702                           	fcall	___fltol
  1703  0BF7  120A  118A  272B  120A  158A  	movf	(0+(?___fltol)),w
  1704  0BFC  0872               	bsf	status, 5	;RP0=1, select bank1
  1705  0BFD  1683               	bcf	status, 6	;RP1=0, select bank1
  1706  0BFE  1303               	movwf	(??_main+0)^080h+0
  1707  0BFF  00AD               	movf	(??_main+0)^080h+0,w
  1708  0C00  082D               	bcf	status, 5	;RP0=0, select bank0
  1709  0C01  1283               	bcf	status, 6	;RP1=0, select bank0
  1710  0C02  1303               	movwf	(_dec1)
  1711  0C03  00EE               	line	96
  1712                           	
  1713                           l2380:	
  1714  0C04                     ;mainM.c: 96:         sensorF2 = (float) sensor2 * 5/255;
  1715                           	movlw	0x43
  1716  0C04  3043               	movwf	(___fldiv@a+3)
  1717  0C05  00E3               	movlw	0x7f
  1718  0C06  307F               	movwf	(___fldiv@a+2)
  1719  0C07  00E2               	movlw	0x0
  1720  0C08  3000               	movwf	(___fldiv@a+1)
  1721  0C09  00E1               	movlw	0x0
  1722  0C0A  3000               	movwf	(___fldiv@a)
  1723  0C0B  00E0               
  1724                           	movlw	0x40
  1725  0C0C  3040               	movwf	(___flmul@b+3)
  1726  0C0D  00C9               	movlw	0xa0
  1727  0C0E  30A0               	movwf	(___flmul@b+2)
  1728  0C0F  00C8               	movlw	0x0
  1729  0C10  3000               	movwf	(___flmul@b+1)
  1730  0C11  00C7               	movlw	0x0
  1731  0C12  3000               	movwf	(___flmul@b)
  1732  0C13  00C6               
  1733                           	movf	(_sensor2),w
  1734  0C14  086F               	bsf	status, 5	;RP0=1, select bank1
  1735  0C15  1683               	bcf	status, 6	;RP1=0, select bank1
  1736  0C16  1303               	movwf	(??_main+0)^080h+0
  1737  0C17  00AD               	clrf	(??_main+0)^080h+0+1
  1738  0C18  01AE               	clrf	(??_main+0)^080h+0+2
  1739  0C19  01AF               	clrf	(??_main+0)^080h+0+3
  1740  0C1A  01B0               	movf	3+(??_main+0)^080h+0,w
  1741  0C1B  0830               	movwf	(___xxtofl@val+3)
  1742  0C1C  00F5               	movf	2+(??_main+0)^080h+0,w
  1743  0C1D  082F               	movwf	(___xxtofl@val+2)
  1744  0C1E  00F4               	movf	1+(??_main+0)^080h+0,w
  1745  0C1F  082E               	movwf	(___xxtofl@val+1)
  1746  0C20  00F3               	movf	0+(??_main+0)^080h+0,w
  1747  0C21  082D               	movwf	(___xxtofl@val)
  1748  0C22  00F2               
  1749                           	movlw	low(0)
  1750  0C23  3000               	fcall	___xxtofl
  1751  0C24  120A  118A  2667  120A  158A  	movf	(3+(?___xxtofl)),w
  1752  0C29  0875               	bcf	status, 5	;RP0=0, select bank0
  1753  0C2A  1283               	bcf	status, 6	;RP1=0, select bank0
  1754  0C2B  1303               	movwf	(___flmul@a+3)
  1755  0C2C  00CD               	movf	(2+(?___xxtofl)),w
  1756  0C2D  0874               	movwf	(___flmul@a+2)
  1757  0C2E  00CC               	movf	(1+(?___xxtofl)),w
  1758  0C2F  0873               	movwf	(___flmul@a+1)
  1759  0C30  00CB               	movf	(0+(?___xxtofl)),w
  1760  0C31  0872               	movwf	(___flmul@a)
  1761  0C32  00CA               
  1762                           	fcall	___flmul
  1763  0C33  120A  118A  2024  120A  158A  	bcf	status, 5	;RP0=0, select bank0
  1764  0C38  1283               	bcf	status, 6	;RP1=0, select bank0
  1765  0C39  1303               	movf	(3+(?___flmul)),w
  1766  0C3A  0849               	movwf	(___fldiv@b+3)
  1767  0C3B  00E7               	movf	(2+(?___flmul)),w
  1768  0C3C  0848               	movwf	(___fldiv@b+2)
  1769  0C3D  00E6               	movf	(1+(?___flmul)),w
  1770  0C3E  0847               	movwf	(___fldiv@b+1)
  1771  0C3F  00E5               	movf	(0+(?___flmul)),w
  1772  0C40  0846               	movwf	(___fldiv@b)
  1773  0C41  00E4               
  1774                           	fcall	___fldiv
  1775  0C42  120A  118A  2399  120A  158A  	bcf	status, 5	;RP0=0, select bank0
  1776  0C47  1283               	bcf	status, 6	;RP1=0, select bank0
  1777  0C48  1303               	movf	(3+(?___fldiv)),w
  1778  0C49  0863               	bsf	status, 5	;RP0=1, select bank1
  1779  0C4A  1683               	bcf	status, 6	;RP1=0, select bank1
  1780  0C4B  1303               	movwf	(_sensorF2+3)^080h
  1781  0C4C  00B4               	bcf	status, 5	;RP0=0, select bank0
  1782  0C4D  1283               	bcf	status, 6	;RP1=0, select bank0
  1783  0C4E  1303               	movf	(2+(?___fldiv)),w
  1784  0C4F  0862               	bsf	status, 5	;RP0=1, select bank1
  1785  0C50  1683               	bcf	status, 6	;RP1=0, select bank1
  1786  0C51  1303               	movwf	(_sensorF2+2)^080h
  1787  0C52  00B3               	bcf	status, 5	;RP0=0, select bank0
  1788  0C53  1283               	bcf	status, 6	;RP1=0, select bank0
  1789  0C54  1303               	movf	(1+(?___fldiv)),w
  1790  0C55  0861               	bsf	status, 5	;RP0=1, select bank1
  1791  0C56  1683               	bcf	status, 6	;RP1=0, select bank1
  1792  0C57  1303               	movwf	(_sensorF2+1)^080h
  1793  0C58  00B2               	bcf	status, 5	;RP0=0, select bank0
  1794  0C59  1283               	bcf	status, 6	;RP1=0, select bank0
  1795  0C5A  1303               	movf	(0+(?___fldiv)),w
  1796  0C5B  0860               	bsf	status, 5	;RP0=1, select bank1
  1797  0C5C  1683               	bcf	status, 6	;RP1=0, select bank1
  1798  0C5D  1303               	movwf	(_sensorF2)^080h
  1799  0C5E  00B1               
  1800                           	line	97
  1801                           ;mainM.c: 97:         entero2 = (int) sensorF2;
  1802                           	movf	(_sensorF2+3)^080h,w
  1803  0C5F  0834               	movwf	(___fltol@f1+3)
  1804  0C60  00F5               	movf	(_sensorF2+2)^080h,w
  1805  0C61  0833               	movwf	(___fltol@f1+2)
  1806  0C62  00F4               	movf	(_sensorF2+1)^080h,w
  1807  0C63  0832               	movwf	(___fltol@f1+1)
  1808  0C64  00F3               	movf	(_sensorF2)^080h,w
  1809  0C65  0831               	movwf	(___fltol@f1)
  1810  0C66  00F2               
  1811                           	fcall	___fltol
  1812  0C67  120A  118A  272B  120A  158A  	movf	(0+(?___fltol)),w
  1813  0C6C  0872               	bsf	status, 5	;RP0=1, select bank1
  1814  0C6D  1683               	bcf	status, 6	;RP1=0, select bank1
  1815  0C6E  1303               	movwf	(??_main+0)^080h+0
  1816  0C6F  00AD               	movf	(??_main+0)^080h+0,w
  1817  0C70  082D               	movwf	(_entero2)
  1818  0C71  00F8               	line	98
  1819                           	
  1820                           l2382:	
  1821  0C72                     ;mainM.c: 98:         float2 = (sensorF2 - entero2) * 100;
  1822                           	movlw	0x42
  1823  0C72  3042               	bcf	status, 5	;RP0=0, select bank0
  1824  0C73  1283               	bcf	status, 6	;RP1=0, select bank0
  1825  0C74  1303               	movwf	(___flmul@b+3)
  1826  0C75  00C9               	movlw	0xc8
  1827  0C76  30C8               	movwf	(___flmul@b+2)
  1828  0C77  00C8               	movlw	0x0
  1829  0C78  3000               	movwf	(___flmul@b+1)
  1830  0C79  00C7               	movlw	0x0
  1831  0C7A  3000               	movwf	(___flmul@b)
  1832  0C7B  00C6               
  1833                           	bsf	status, 5	;RP0=1, select bank1
  1834  0C7C  1683               	bcf	status, 6	;RP1=0, select bank1
  1835  0C7D  1303               	movf	(_sensorF2+3)^080h,w
  1836  0C7E  0834               	bcf	status, 5	;RP0=0, select bank0
  1837  0C7F  1283               	bcf	status, 6	;RP1=0, select bank0
  1838  0C80  1303               	movwf	(___fladd@b+3)
  1839  0C81  00B1               	bsf	status, 5	;RP0=1, select bank1
  1840  0C82  1683               	bcf	status, 6	;RP1=0, select bank1
  1841  0C83  1303               	movf	(_sensorF2+2)^080h,w
  1842  0C84  0833               	bcf	status, 5	;RP0=0, select bank0
  1843  0C85  1283               	bcf	status, 6	;RP1=0, select bank0
  1844  0C86  1303               	movwf	(___fladd@b+2)
  1845  0C87  00B0               	bsf	status, 5	;RP0=1, select bank1
  1846  0C88  1683               	bcf	status, 6	;RP1=0, select bank1
  1847  0C89  1303               	movf	(_sensorF2+1)^080h,w
  1848  0C8A  0832               	bcf	status, 5	;RP0=0, select bank0
  1849  0C8B  1283               	bcf	status, 6	;RP1=0, select bank0
  1850  0C8C  1303               	movwf	(___fladd@b+1)
  1851  0C8D  00AF               	bsf	status, 5	;RP0=1, select bank1
  1852  0C8E  1683               	bcf	status, 6	;RP1=0, select bank1
  1853  0C8F  1303               	movf	(_sensorF2)^080h,w
  1854  0C90  0831               	bcf	status, 5	;RP0=0, select bank0
  1855  0C91  1283               	bcf	status, 6	;RP1=0, select bank0
  1856  0C92  1303               	movwf	(___fladd@b)
  1857  0C93  00AE               
  1858                           	movf	(_entero2),w
  1859  0C94  0878               	bsf	status, 5	;RP0=1, select bank1
  1860  0C95  1683               	bcf	status, 6	;RP1=0, select bank1
  1861  0C96  1303               	movwf	(??_main+0)^080h+0
  1862  0C97  00AD               	clrf	(??_main+0)^080h+0+1
  1863  0C98  01AE               	clrf	(??_main+0)^080h+0+2
  1864  0C99  01AF               	clrf	(??_main+0)^080h+0+3
  1865  0C9A  01B0               	movf	3+(??_main+0)^080h+0,w
  1866  0C9B  0830               	movwf	(___xxtofl@val+3)
  1867  0C9C  00F5               	movf	2+(??_main+0)^080h+0,w
  1868  0C9D  082F               	movwf	(___xxtofl@val+2)
  1869  0C9E  00F4               	movf	1+(??_main+0)^080h+0,w
  1870  0C9F  082E               	movwf	(___xxtofl@val+1)
  1871  0CA0  00F3               	movf	0+(??_main+0)^080h+0,w
  1872  0CA1  082D               	movwf	(___xxtofl@val)
  1873  0CA2  00F2               
  1874                           	movlw	low(01h)
  1875  0CA3  3001               	fcall	___xxtofl
  1876  0CA4  120A  118A  2667  120A  158A  	movf	(3+(?___xxtofl)),w
  1877  0CA9  0875               	bcf	status, 5	;RP0=0, select bank0
  1878  0CAA  1283               	bcf	status, 6	;RP1=0, select bank0
  1879  0CAB  1303               	movwf	(___flneg@f1+3)
  1880  0CAC  00AD               	movf	(2+(?___xxtofl)),w
  1881  0CAD  0874               	movwf	(___flneg@f1+2)
  1882  0CAE  00AC               	movf	(1+(?___xxtofl)),w
  1883  0CAF  0873               	movwf	(___flneg@f1+1)
  1884  0CB0  00AB               	movf	(0+(?___xxtofl)),w
  1885  0CB1  0872               	movwf	(___flneg@f1)
  1886  0CB2  00AA               
  1887                           	fcall	___flneg
  1888  0CB3  120A  158A  21ED  120A  158A  	bcf	status, 5	;RP0=0, select bank0
  1889  0CB8  1283               	bcf	status, 6	;RP1=0, select bank0
  1890  0CB9  1303               	movf	(3+(?___flneg)),w
  1891  0CBA  082D               	movwf	(___fladd@a+3)
  1892  0CBB  00B5               	movf	(2+(?___flneg)),w
  1893  0CBC  082C               	movwf	(___fladd@a+2)
  1894  0CBD  00B4               	movf	(1+(?___flneg)),w
  1895  0CBE  082B               	movwf	(___fladd@a+1)
  1896  0CBF  00B3               	movf	(0+(?___flneg)),w
  1897  0CC0  082A               	movwf	(___fladd@a)
  1898  0CC1  00B2               
  1899                           	fcall	___fladd
  1900  0CC2  120A  158A  2544  120A  158A  	bcf	status, 5	;RP0=0, select bank0
  1901  0CC7  1283               	bcf	status, 6	;RP1=0, select bank0
  1902  0CC8  1303               	movf	(3+(?___fladd)),w
  1903  0CC9  0831               	movwf	(___flmul@a+3)
  1904  0CCA  00CD               	movf	(2+(?___fladd)),w
  1905  0CCB  0830               	movwf	(___flmul@a+2)
  1906  0CCC  00CC               	movf	(1+(?___fladd)),w
  1907  0CCD  082F               	movwf	(___flmul@a+1)
  1908  0CCE  00CB               	movf	(0+(?___fladd)),w
  1909  0CCF  082E               	movwf	(___flmul@a)
  1910  0CD0  00CA               
  1911                           	fcall	___flmul
  1912  0CD1  120A  118A  2024  120A  158A  	bcf	status, 5	;RP0=0, select bank0
  1913  0CD6  1283               	bcf	status, 6	;RP1=0, select bank0
  1914  0CD7  1303               	movf	(3+(?___flmul)),w
  1915  0CD8  0849               	bsf	status, 5	;RP0=1, select bank1
  1916  0CD9  1683               	bcf	status, 6	;RP1=0, select bank1
  1917  0CDA  1303               	movwf	(_float2+3)^080h
  1918  0CDB  00BC               	bcf	status, 5	;RP0=0, select bank0
  1919  0CDC  1283               	bcf	status, 6	;RP1=0, select bank0
  1920  0CDD  1303               	movf	(2+(?___flmul)),w
  1921  0CDE  0848               	bsf	status, 5	;RP0=1, select bank1
  1922  0CDF  1683               	bcf	status, 6	;RP1=0, select bank1
  1923  0CE0  1303               	movwf	(_float2+2)^080h
  1924  0CE1  00BB               	bcf	status, 5	;RP0=0, select bank0
  1925  0CE2  1283               	bcf	status, 6	;RP1=0, select bank0
  1926  0CE3  1303               	movf	(1+(?___flmul)),w
  1927  0CE4  0847               	bsf	status, 5	;RP0=1, select bank1
  1928  0CE5  1683               	bcf	status, 6	;RP1=0, select bank1
  1929  0CE6  1303               	movwf	(_float2+1)^080h
  1930  0CE7  00BA               	bcf	status, 5	;RP0=0, select bank0
  1931  0CE8  1283               	bcf	status, 6	;RP1=0, select bank0
  1932  0CE9  1303               	movf	(0+(?___flmul)),w
  1933  0CEA  0846               	bsf	status, 5	;RP0=1, select bank1
  1934  0CEB  1683               	bcf	status, 6	;RP1=0, select bank1
  1935  0CEC  1303               	movwf	(_float2)^080h
  1936  0CED  00B9               
  1937                           	line	99
  1938                           	
  1939                           l2384:	
  1940  0CEE                     ;mainM.c: 99:         dec2 = (int) float2;
  1941                           	movf	(_float2+3)^080h,w
  1942  0CEE  083C               	movwf	(___fltol@f1+3)
  1943  0CEF  00F5               	movf	(_float2+2)^080h,w
  1944  0CF0  083B               	movwf	(___fltol@f1+2)
  1945  0CF1  00F4               	movf	(_float2+1)^080h,w
  1946  0CF2  083A               	movwf	(___fltol@f1+1)
  1947  0CF3  00F3               	movf	(_float2)^080h,w
  1948  0CF4  0839               	movwf	(___fltol@f1)
  1949  0CF5  00F2               
  1950                           	fcall	___fltol
  1951  0CF6  120A  118A  272B  120A  158A  	movf	(0+(?___fltol)),w
  1952  0CFB  0872               	bsf	status, 5	;RP0=1, select bank1
  1953  0CFC  1683               	bcf	status, 6	;RP1=0, select bank1
  1954  0CFD  1303               	movwf	(??_main+0)^080h+0
  1955  0CFE  00AD               	movf	(??_main+0)^080h+0,w
  1956  0CFF  082D               	bcf	status, 5	;RP0=0, select bank0
  1957  0D00  1283               	bcf	status, 6	;RP1=0, select bank0
  1958  0D01  1303               	movwf	(_dec2)
  1959  0D02  00ED               	line	101
  1960                           	
  1961                           l2386:	
  1962  0D03                     ;mainM.c: 101:         sendUSART(entero1);
  1963                           	movf	(_entero1),w
  1964  0D03  0879               	fcall	_sendUSART
  1965  0D04  120A  158A  21DF  120A  158A  	line	102
  1966                           	
  1967                           l2388:	
  1968  0D09                     ;mainM.c: 102:         sendUSART(float1);
  1969                           	bsf	status, 5	;RP0=1, select bank1
  1970  0D09  1683               	bcf	status, 6	;RP1=0, select bank1
  1971  0D0A  1303               	movf	(_float1+3)^080h,w
  1972  0D0B  0840               	movwf	(___fltol@f1+3)
  1973  0D0C  00F5               	movf	(_float1+2)^080h,w
  1974  0D0D  083F               	movwf	(___fltol@f1+2)
  1975  0D0E  00F4               	movf	(_float1+1)^080h,w
  1976  0D0F  083E               	movwf	(___fltol@f1+1)
  1977  0D10  00F3               	movf	(_float1)^080h,w
  1978  0D11  083D               	movwf	(___fltol@f1)
  1979  0D12  00F2               
  1980                           	fcall	___fltol
  1981  0D13  120A  118A  272B  120A  158A  	movf	(0+(?___fltol)),w
  1982  0D18  0872               	fcall	_sendUSART
  1983  0D19  120A  158A  21DF  120A  158A  	line	103
  1984                           	
  1985                           l2390:	
  1986  0D1E                     ;mainM.c: 103:         sendUSART(entero2);
  1987                           	movf	(_entero2),w
  1988  0D1E  0878               	fcall	_sendUSART
  1989  0D1F  120A  158A  21DF  120A  158A  	line	104
  1990                           	
  1991                           l2392:	
  1992  0D24                     ;mainM.c: 104:         sendUSART(float2);
  1993                           	bsf	status, 5	;RP0=1, select bank1
  1994  0D24  1683               	bcf	status, 6	;RP1=0, select bank1
  1995  0D25  1303               	movf	(_float2+3)^080h,w
  1996  0D26  083C               	movwf	(___fltol@f1+3)
  1997  0D27  00F5               	movf	(_float2+2)^080h,w
  1998  0D28  083B               	movwf	(___fltol@f1+2)
  1999  0D29  00F4               	movf	(_float2+1)^080h,w
  2000  0D2A  083A               	movwf	(___fltol@f1+1)
  2001  0D2B  00F3               	movf	(_float2)^080h,w
  2002  0D2C  0839               	movwf	(___fltol@f1)
  2003  0D2D  00F2               
  2004                           	fcall	___fltol
  2005  0D2E  120A  118A  272B  120A  158A  	movf	(0+(?___fltol)),w
  2006  0D33  0872               	fcall	_sendUSART
  2007  0D34  120A  158A  21DF  120A  158A  	line	105
  2008                           	
  2009                           l2394:	
  2010  0D39                     ;mainM.c: 105:         sendUSART(176);
  2011                           	movlw	low(0B0h)
  2012  0D39  30B0               	fcall	_sendUSART
  2013  0D3A  120A  158A  21DF  120A  158A  	goto	l71
  2014  0D3F  2ACD               	line	108
  2015                           ;mainM.c: 108:     }
  2016                           	
  2017                           l72:	
  2018  0D40                     	goto	l71
  2019  0D40  2ACD               	
  2020                           l73:	
  2021  0D41                     	line	110
  2022                           ;mainM.c: 109:     return;
  2023                           	
  2024                           l74:	
  2025  0D41                     	global	start
  2026                           	ljmp	start
  2027  0D41  120A  118A  280C   	opt stack 0
  2028                           GLOBAL	__end_of_main
  2029                           	__end_of_main:
  2030  0D44                     	signat	_main,89
  2031                           	global	_spiWrite
  2032                           
  2033 ;; *************** function _spiWrite *****************
  2034 ;; Defined at:
  2035 ;;		line 34 in file "SPI.c"
  2036 ;; Parameters:    Size  Location     Type
  2037 ;;  dat             1    wreg     unsigned char 
  2038 ;; Auto vars:     Size  Location     Type
  2039 ;;  dat             1    2[COMMON] unsigned char 
  2040 ;; Return value:  Size  Location     Type
  2041 ;;                  1    wreg      void 
  2042 ;; Registers used:
  2043 ;;		wreg
  2044 ;; Tracked objects:
  2045 ;;		On entry : 0/0
  2046 ;;		On exit  : 0/0
  2047 ;;		Unchanged: 0/0
  2048 ;; Data sizes:     COMMON   BANK0   BANK1   BANK3   BANK2
  2049 ;;      Params:         0       0       0       0       0
  2050 ;;      Locals:         1       0       0       0       0
  2051 ;;      Temps:          0       0       0       0       0
  2052 ;;      Totals:         1       0       0       0       0
  2053 ;;Total ram usage:        1 bytes
  2054 ;; Hardware stack levels used:    1
  2055 ;; Hardware stack levels required when called:    1
  2056 ;; This function calls:
  2057 ;;		Nothing
  2058 ;; This function is called by:
  2059 ;;		_main
  2060 ;; This function uses a non-reentrant model
  2061 ;;
  2062                           psect	text1,local,class=CODE,delta=2,merge=1,group=0
  2063                           	file	"SPI.c"
  2064                           	line	34
  2065                           global __ptext1
  2066                           __ptext1:	;psect for function _spiWrite
  2067  09C8                     psect	text1
  2068                           	file	"SPI.c"
  2069                           	line	34
  2070                           	global	__size_of_spiWrite
  2071                           	__size_of_spiWrite	equ	__end_of_spiWrite-_spiWrite
  2072  0006                     	
  2073                           _spiWrite:	
  2074  09C8                     ;incstack = 0
  2075                           	opt	stack 6
  2076                           ; Regs used in _spiWrite: [wreg]
  2077                           ;spiWrite@dat stored from wreg
  2078                           	movwf	(spiWrite@dat)
  2079  09C8  00F2               	line	36
  2080                           	
  2081                           l1522:	
  2082  09C9                     ;SPI.c: 34: void spiWrite(char dat);SPI.c: 35: {;SPI.c: 36:     SSPBUF = dat;
  2083                           	movf	(spiWrite@dat),w
  2084  09C9  0872               	bcf	status, 5	;RP0=0, select bank0
  2085  09CA  1283               	bcf	status, 6	;RP1=0, select bank0
  2086  09CB  1303               	movwf	(19)	;volatile
  2087  09CC  0093               	line	37
  2088                           	
  2089                           l103:	
  2090  09CD                     	return
  2091  09CD  0008               	opt stack 0
  2092                           GLOBAL	__end_of_spiWrite
  2093                           	__end_of_spiWrite:
  2094  09CE                     	signat	_spiWrite,4217
  2095                           	global	_spiRead
  2096                           
  2097 ;; *************** function _spiRead *****************
  2098 ;; Defined at:
  2099 ;;		line 47 in file "SPI.c"
  2100 ;; Parameters:    Size  Location     Type
  2101 ;;		None
  2102 ;; Auto vars:     Size  Location     Type
  2103 ;;		None
  2104 ;; Return value:  Size  Location     Type
  2105 ;;                  1    wreg      unsigned char 
  2106 ;; Registers used:
  2107 ;;		wreg, status,2, status,0, pclath, cstack
  2108 ;; Tracked objects:
  2109 ;;		On entry : 0/0
  2110 ;;		On exit  : 0/0
  2111 ;;		Unchanged: 0/0
  2112 ;; Data sizes:     COMMON   BANK0   BANK1   BANK3   BANK2
  2113 ;;      Params:         0       0       0       0       0
  2114 ;;      Locals:         0       0       0       0       0
  2115 ;;      Temps:          0       0       0       0       0
  2116 ;;      Totals:         0       0       0       0       0
  2117 ;;Total ram usage:        0 bytes
  2118 ;; Hardware stack levels used:    1
  2119 ;; Hardware stack levels required when called:    2
  2120 ;; This function calls:
  2121 ;;		_spiReceiveWait
  2122 ;; This function is called by:
  2123 ;;		_main
  2124 ;; This function uses a non-reentrant model
  2125 ;;
  2126                           psect	text2,local,class=CODE,delta=2,merge=1,group=0
  2127                           	line	47
  2128                           global __ptext2
  2129                           __ptext2:	;psect for function _spiRead
  2130  07F3                     psect	text2
  2131                           	file	"SPI.c"
  2132                           	line	47
  2133                           	global	__size_of_spiRead
  2134                           	__size_of_spiRead	equ	__end_of_spiRead-_spiRead
  2135  000A                     	
  2136                           _spiRead:	
  2137  07F3                     ;incstack = 0
  2138                           	opt	stack 5
  2139                           ; Regs used in _spiRead: [wreg+status,2+status,0+pclath+cstack]
  2140                           	line	49
  2141                           	
  2142                           l1524:	
  2143  07F3                     ;SPI.c: 49:     spiReceiveWait();
  2144                           	fcall	_spiReceiveWait
  2145  07F3  120A  158A  21D6  120A  118A  	line	50
  2146                           	
  2147                           l1526:	
  2148  07F8                     ;SPI.c: 50:     return(SSPBUF);
  2149                           	bcf	status, 5	;RP0=0, select bank0
  2150  07F8  1283               	bcf	status, 6	;RP1=0, select bank0
  2151  07F9  1303               	movf	(19),w	;volatile
  2152  07FA  0813               	goto	l111
  2153  07FB  2FFC               	
  2154                           l1528:	
  2155  07FC                     	line	51
  2156                           	
  2157                           l111:	
  2158  07FC                     	return
  2159  07FC  0008               	opt stack 0
  2160                           GLOBAL	__end_of_spiRead
  2161                           	__end_of_spiRead:
  2162  07FD                     	signat	_spiRead,89
  2163                           	global	_spiReceiveWait
  2164                           
  2165 ;; *************** function _spiReceiveWait *****************
  2166 ;; Defined at:
  2167 ;;		line 29 in file "SPI.c"
  2168 ;; Parameters:    Size  Location     Type
  2169 ;;		None
  2170 ;; Auto vars:     Size  Location     Type
  2171 ;;		None
  2172 ;; Return value:  Size  Location     Type
  2173 ;;                  1    wreg      void 
  2174 ;; Registers used:
  2175 ;;		None
  2176 ;; Tracked objects:
  2177 ;;		On entry : 0/0
  2178 ;;		On exit  : 0/0
  2179 ;;		Unchanged: 0/0
  2180 ;; Data sizes:     COMMON   BANK0   BANK1   BANK3   BANK2
  2181 ;;      Params:         0       0       0       0       0
  2182 ;;      Locals:         0       0       0       0       0
  2183 ;;      Temps:          0       0       0       0       0
  2184 ;;      Totals:         0       0       0       0       0
  2185 ;;Total ram usage:        0 bytes
  2186 ;; Hardware stack levels used:    1
  2187 ;; Hardware stack levels required when called:    1
  2188 ;; This function calls:
  2189 ;;		Nothing
  2190 ;; This function is called by:
  2191 ;;		_spiRead
  2192 ;; This function uses a non-reentrant model
  2193 ;;
  2194                           psect	text3,local,class=CODE,delta=2,merge=1,group=0
  2195                           	line	29
  2196                           global __ptext3
  2197                           __ptext3:	;psect for function _spiReceiveWait
  2198  09D6                     psect	text3
  2199                           	file	"SPI.c"
  2200                           	line	29
  2201                           	global	__size_of_spiReceiveWait
  2202                           	__size_of_spiReceiveWait	equ	__end_of_spiReceiveWait-_spiReceiveWait
  2203  0009                     	
  2204                           _spiReceiveWait:	
  2205  09D6                     ;incstack = 0
  2206                           	opt	stack 5
  2207                           ; Regs used in _spiReceiveWait: []
  2208                           	line	31
  2209                           	
  2210                           l1444:	
  2211  09D6                     ;SPI.c: 31:     while ( !SSPSTATbits.BF );
  2212                           	goto	l97
  2213  09D6  29D7               	
  2214                           l98:	
  2215  09D7                     	
  2216                           l97:	
  2217  09D7                     	bsf	status, 5	;RP0=1, select bank1
  2218  09D7  1683               	bcf	status, 6	;RP1=0, select bank1
  2219  09D8  1303               	btfss	(148)^080h,0	;volatile
  2220  09D9  1C14               	goto	u1541
  2221  09DA  29DC               	goto	u1540
  2222  09DB  29DD               u1541:
  2223  09DC                     	goto	l97
  2224  09DC  29D7               u1540:
  2225  09DD                     	goto	l100
  2226  09DD  29DE               	
  2227                           l99:	
  2228  09DE                     	line	32
  2229                           	
  2230                           l100:	
  2231  09DE                     	return
  2232  09DE  0008               	opt stack 0
  2233                           GLOBAL	__end_of_spiReceiveWait
  2234                           	__end_of_spiReceiveWait:
  2235  09DF                     	signat	_spiReceiveWait,89
  2236                           	global	_setup
  2237                           
  2238 ;; *************** function _setup *****************
  2239 ;; Defined at:
  2240 ;;		line 114 in file "mainM.c"
  2241 ;; Parameters:    Size  Location     Type
  2242 ;;		None
  2243 ;; Auto vars:     Size  Location     Type
  2244 ;;		None
  2245 ;; Return value:  Size  Location     Type
  2246 ;;                  1    wreg      void 
  2247 ;; Registers used:
  2248 ;;		wreg, status,2, status,0, pclath, cstack
  2249 ;; Tracked objects:
  2250 ;;		On entry : 0/0
  2251 ;;		On exit  : 0/0
  2252 ;;		Unchanged: 0/0
  2253 ;; Data sizes:     COMMON   BANK0   BANK1   BANK3   BANK2
  2254 ;;      Params:         0       0       0       0       0
  2255 ;;      Locals:         0       0       0       0       0
  2256 ;;      Temps:          0       0       0       0       0
  2257 ;;      Totals:         0       0       0       0       0
  2258 ;;Total ram usage:        0 bytes
  2259 ;; Hardware stack levels used:    1
  2260 ;; Hardware stack levels required when called:    2
  2261 ;; This function calls:
  2262 ;;		_spiInit
  2263 ;; This function is called by:
  2264 ;;		_main
  2265 ;; This function uses a non-reentrant model
  2266 ;;
  2267                           psect	text4,local,class=CODE,delta=2,merge=1,group=0
  2268                           	file	"mainM.c"
  2269                           	line	114
  2270                           global __ptext4
  2271                           __ptext4:	;psect for function _setup
  2272  0A23                     psect	text4
  2273                           	file	"mainM.c"
  2274                           	line	114
  2275                           	global	__size_of_setup
  2276                           	__size_of_setup	equ	__end_of_setup-_setup
  2277  001C                     	
  2278                           _setup:	
  2279  0A23                     ;incstack = 0
  2280                           	opt	stack 5
  2281                           ; Regs used in _setup: [wreg+status,2+status,0+pclath+cstack]
  2282                           	line	115
  2283                           	
  2284                           l1460:	
  2285  0A23                     ;mainM.c: 115:     ANSEL = 0;
  2286                           	bsf	status, 5	;RP0=1, select bank3
  2287  0A23  1683               	bsf	status, 6	;RP1=1, select bank3
  2288  0A24  1703               	clrf	(392)^0180h	;volatile
  2289  0A25  0188               	line	116
  2290                           ;mainM.c: 116:     ANSELH = 0;
  2291                           	clrf	(393)^0180h	;volatile
  2292  0A26  0189               	line	117
  2293                           	
  2294                           l1462:	
  2295  0A27                     ;mainM.c: 117:     TRISC2 = 0;
  2296                           	bsf	status, 5	;RP0=1, select bank1
  2297  0A27  1683               	bcf	status, 6	;RP1=0, select bank1
  2298  0A28  1303               	bcf	(1082/8)^080h,(1082)&7	;volatile
  2299  0A29  1107               	line	118
  2300                           	
  2301                           l1464:	
  2302  0A2A                     ;mainM.c: 118:     TRISCbits.TRISC5 = 0;
  2303                           	bcf	(135)^080h,5	;volatile
  2304  0A2A  1287               	line	119
  2305                           	
  2306                           l1466:	
  2307  0A2B                     ;mainM.c: 119:     TRISCbits.TRISC4 = 1;
  2308                           	bsf	(135)^080h,4	;volatile
  2309  0A2B  1607               	line	120
  2310                           	
  2311                           l1468:	
  2312  0A2C                     ;mainM.c: 120:     TRISA = 0b10000000;
  2313                           	movlw	low(080h)
  2314  0A2C  3080               	movwf	(133)^080h	;volatile
  2315  0A2D  0085               	line	121
  2316                           	
  2317                           l1470:	
  2318  0A2E                     ;mainM.c: 121:     TRISB = 0;
  2319                           	clrf	(134)^080h	;volatile
  2320  0A2E  0186               	line	122
  2321                           	
  2322                           l1472:	
  2323  0A2F                     ;mainM.c: 122:     TRISD = 0;
  2324                           	clrf	(136)^080h	;volatile
  2325  0A2F  0188               	line	123
  2326                           	
  2327                           l1474:	
  2328  0A30                     ;mainM.c: 123:     PORTB = 0;
  2329                           	bcf	status, 5	;RP0=0, select bank0
  2330  0A30  1283               	bcf	status, 6	;RP1=0, select bank0
  2331  0A31  1303               	clrf	(6)	;volatile
  2332  0A32  0186               	line	124
  2333                           	
  2334                           l1476:	
  2335  0A33                     ;mainM.c: 124:     PORTD = 0;
  2336                           	clrf	(8)	;volatile
  2337  0A33  0188               	line	125
  2338                           	
  2339                           l1478:	
  2340  0A34                     ;mainM.c: 125:     PORTCbits.RC2 = 1;
  2341                           	bsf	(7),2	;volatile
  2342  0A34  1507               	line	126
  2343                           	
  2344                           l1480:	
  2345  0A35                     ;mainM.c: 126:     spiInit(SPI_MASTER_OSC_DIV4, SPI_DATA_SAMPLE_MIDDLE, SPI_CLOCK_IDLE_L
                                 OW, SPI_IDLE_2_ACTIVE);
  2346                           	clrf	(spiInit@sDataSample)
  2347  0A35  01F2               	clrf	(spiInit@sClockIdle)
  2348  0A36  01F3               	clrf	(spiInit@sTransmitEdge)
  2349  0A37  01F4               	movlw	low(020h)
  2350  0A38  3020               	fcall	_spiInit
  2351  0A39  120A  158A  220D  120A  158A  	line	128
  2352                           	
  2353                           l77:	
  2354  0A3E                     	return
  2355  0A3E  0008               	opt stack 0
  2356                           GLOBAL	__end_of_setup
  2357                           	__end_of_setup:
  2358  0A3F                     	signat	_setup,89
  2359                           	global	_spiInit
  2360                           
  2361 ;; *************** function _spiInit *****************
  2362 ;; Defined at:
  2363 ;;		line 12 in file "SPI.c"
  2364 ;; Parameters:    Size  Location     Type
  2365 ;;  sType           1    wreg     enum E1264
  2366 ;;  sDataSample     1    2[COMMON] enum E1272
  2367 ;;  sClockIdle      1    3[COMMON] enum E1276
  2368 ;;  sTransmitEdg    1    4[COMMON] enum E1280
  2369 ;; Auto vars:     Size  Location     Type
  2370 ;;  sType           1    5[COMMON] enum E1264
  2371 ;; Return value:  Size  Location     Type
  2372 ;;                  1    wreg      void 
  2373 ;; Registers used:
  2374 ;;		wreg, status,2, status,0
  2375 ;; Tracked objects:
  2376 ;;		On entry : 0/0
  2377 ;;		On exit  : 0/0
  2378 ;;		Unchanged: 0/0
  2379 ;; Data sizes:     COMMON   BANK0   BANK1   BANK3   BANK2
  2380 ;;      Params:         3       0       0       0       0
  2381 ;;      Locals:         1       0       0       0       0
  2382 ;;      Temps:          0       0       0       0       0
  2383 ;;      Totals:         4       0       0       0       0
  2384 ;;Total ram usage:        4 bytes
  2385 ;; Hardware stack levels used:    1
  2386 ;; Hardware stack levels required when called:    1
  2387 ;; This function calls:
  2388 ;;		Nothing
  2389 ;; This function is called by:
  2390 ;;		_setup
  2391 ;; This function uses a non-reentrant model
  2392 ;;
  2393                           psect	text5,local,class=CODE,delta=2,merge=1,group=0
  2394                           	file	"SPI.c"
  2395                           	line	12
  2396                           global __ptext5
  2397                           __ptext5:	;psect for function _spiInit
  2398  0A0D                     psect	text5
  2399                           	file	"SPI.c"
  2400                           	line	12
  2401                           	global	__size_of_spiInit
  2402                           	__size_of_spiInit	equ	__end_of_spiInit-_spiInit
  2403  0016                     	
  2404                           _spiInit:	
  2405  0A0D                     ;incstack = 0
  2406                           	opt	stack 5
  2407                           ; Regs used in _spiInit: [wreg+status,2+status,0]
  2408                           ;spiInit@sType stored from wreg
  2409                           	movwf	(spiInit@sType)
  2410  0A0D  00F5               	line	14
  2411                           	
  2412                           l1434:	
  2413  0A0E                     ;SPI.c: 12: void spiInit(Spi_Type sType, Spi_Data_Sample sDataSample, Spi_Clock_Idle sCl
                                 ockIdle, Spi_Transmit_Edge sTransmitEdge);SPI.c: 13: {;SPI.c: 14:     TRISC5 = 0;
  2414                           	bsf	status, 5	;RP0=1, select bank1
  2415  0A0E  1683               	bcf	status, 6	;RP1=0, select bank1
  2416  0A0F  1303               	bcf	(1085/8)^080h,(1085)&7	;volatile
  2417  0A10  1287               	line	15
  2418                           ;SPI.c: 15:     if(sType & 0b00000100)
  2419                           	btfss	(spiInit@sType),(2)&7
  2420  0A11  1D75               	goto	u1531
  2421  0A12  2A14               	goto	u1530
  2422  0A13  2A15               u1531:
  2423  0A14                     	goto	l1440
  2424  0A14  2A19               u1530:
  2425  0A15                     	line	17
  2426                           	
  2427                           l1436:	
  2428  0A15                     ;SPI.c: 16:     {;SPI.c: 17:         SSPSTAT = sTransmitEdge;
  2429                           	movf	(spiInit@sTransmitEdge),w
  2430  0A15  0874               	movwf	(148)^080h	;volatile
  2431  0A16  0094               	line	18
  2432                           	
  2433                           l1438:	
  2434  0A17                     ;SPI.c: 18:         TRISC3 = 1;
  2435                           	bsf	(1083/8)^080h,(1083)&7	;volatile
  2436  0A17  1587               	line	19
  2437                           ;SPI.c: 19:     }
  2438                           	goto	l93
  2439  0A18  2A1D               	line	20
  2440                           ;SPI.c: 20:     else
  2441                           	
  2442                           l92:	
  2443  0A19                     	line	22
  2444                           	
  2445                           l1440:	
  2446  0A19                     ;SPI.c: 21:     {;SPI.c: 22:         SSPSTAT = sDataSample | sTransmitEdge;
  2447                           	movf	(spiInit@sDataSample),w
  2448  0A19  0872               	iorwf	(spiInit@sTransmitEdge),w
  2449  0A1A  0474               	movwf	(148)^080h	;volatile
  2450  0A1B  0094               	line	23
  2451                           	
  2452                           l1442:	
  2453  0A1C                     ;SPI.c: 23:         TRISC3 = 0;
  2454                           	bcf	(1083/8)^080h,(1083)&7	;volatile
  2455  0A1C  1187               	line	24
  2456                           ;SPI.c: 24:     }
  2457                           	
  2458                           l93:	
  2459  0A1D                     	line	26
  2460                           ;SPI.c: 26:     SSPCON = sType | sClockIdle;
  2461                           	movf	(spiInit@sType),w
  2462  0A1D  0875               	iorwf	(spiInit@sClockIdle),w
  2463  0A1E  0473               	bcf	status, 5	;RP0=0, select bank0
  2464  0A1F  1283               	bcf	status, 6	;RP1=0, select bank0
  2465  0A20  1303               	movwf	(20)	;volatile
  2466  0A21  0094               	line	27
  2467                           	
  2468                           l94:	
  2469  0A22                     	return
  2470  0A22  0008               	opt stack 0
  2471                           GLOBAL	__end_of_spiInit
  2472                           	__end_of_spiInit:
  2473  0A23                     	signat	_spiInit,16505
  2474                           	global	_sendUSART
  2475                           
  2476 ;; *************** function _sendUSART *****************
  2477 ;; Defined at:
  2478 ;;		line 42 in file "USART.c"
  2479 ;; Parameters:    Size  Location     Type
  2480 ;;  data            1    wreg     unsigned char 
  2481 ;; Auto vars:     Size  Location     Type
  2482 ;;  data            1    2[COMMON] unsigned char 
  2483 ;; Return value:  Size  Location     Type
  2484 ;;                  1    wreg      void 
  2485 ;; Registers used:
  2486 ;;		wreg
  2487 ;; Tracked objects:
  2488 ;;		On entry : 0/0
  2489 ;;		On exit  : 0/0
  2490 ;;		Unchanged: 0/0
  2491 ;; Data sizes:     COMMON   BANK0   BANK1   BANK3   BANK2
  2492 ;;      Params:         0       0       0       0       0
  2493 ;;      Locals:         1       0       0       0       0
  2494 ;;      Temps:          0       0       0       0       0
  2495 ;;      Totals:         1       0       0       0       0
  2496 ;;Total ram usage:        1 bytes
  2497 ;; Hardware stack levels used:    1
  2498 ;; Hardware stack levels required when called:    1
  2499 ;; This function calls:
  2500 ;;		Nothing
  2501 ;; This function is called by:
  2502 ;;		_main
  2503 ;; This function uses a non-reentrant model
  2504 ;;
  2505                           psect	text6,local,class=CODE,delta=2,merge=1,group=0
  2506                           	file	"USART.c"
  2507                           	line	42
  2508                           global __ptext6
  2509                           __ptext6:	;psect for function _sendUSART
  2510  09DF                     psect	text6
  2511                           	file	"USART.c"
  2512                           	line	42
  2513                           	global	__size_of_sendUSART
  2514                           	__size_of_sendUSART	equ	__end_of_sendUSART-_sendUSART
  2515  000E                     	
  2516                           _sendUSART:	
  2517  09DF                     ;incstack = 0
  2518                           	opt	stack 6
  2519                           ; Regs used in _sendUSART: [wreg]
  2520                           ;sendUSART@data stored from wreg
  2521                           	movwf	(sendUSART@data)
  2522  09DF  00F2               	line	43
  2523                           	
  2524                           l1530:	
  2525  09E0                     ;USART.c: 43:     while (TXSTAbits.TRMT == 0){}
  2526                           	goto	l150
  2527  09E0  29E1               	
  2528                           l151:	
  2529  09E1                     	
  2530                           l150:	
  2531  09E1                     	bsf	status, 5	;RP0=1, select bank1
  2532  09E1  1683               	bcf	status, 6	;RP1=0, select bank1
  2533  09E2  1303               	btfss	(152)^080h,1	;volatile
  2534  09E3  1C98               	goto	u1661
  2535  09E4  29E6               	goto	u1660
  2536  09E5  29E7               u1661:
  2537  09E6                     	goto	l150
  2538  09E6  29E1               u1660:
  2539  09E7                     	goto	l1532
  2540  09E7  29E8               	
  2541                           l152:	
  2542  09E8                     	line	44
  2543                           	
  2544                           l1532:	
  2545  09E8                     ;USART.c: 44:     TXREG = data;
  2546                           	movf	(sendUSART@data),w
  2547  09E8  0872               	bcf	status, 5	;RP0=0, select bank0
  2548  09E9  1283               	bcf	status, 6	;RP1=0, select bank0
  2549  09EA  1303               	movwf	(25)	;volatile
  2550  09EB  0099               	line	45
  2551                           	
  2552                           l153:	
  2553  09EC                     	return
  2554  09EC  0008               	opt stack 0
  2555                           GLOBAL	__end_of_sendUSART
  2556                           	__end_of_sendUSART:
  2557  09ED                     	signat	_sendUSART,4217
  2558                           	global	_initUSART
  2559                           
  2560 ;; *************** function _initUSART *****************
  2561 ;; Defined at:
  2562 ;;		line 4 in file "USART.c"
  2563 ;; Parameters:    Size  Location     Type
  2564 ;;  baudrate        2    2[COMMON] unsigned int 
  2565 ;;  txint           1    4[COMMON] unsigned char 
  2566 ;;  rcint           1    5[COMMON] unsigned char 
  2567 ;;  syncrono        1    6[COMMON] unsigned char 
  2568 ;; Auto vars:     Size  Location     Type
  2569 ;;		None
  2570 ;; Return value:  Size  Location     Type
  2571 ;;                  1    wreg      void 
  2572 ;; Registers used:
  2573 ;;		wreg, status,2, status,0
  2574 ;; Tracked objects:
  2575 ;;		On entry : 0/0
  2576 ;;		On exit  : 0/0
  2577 ;;		Unchanged: 0/0
  2578 ;; Data sizes:     COMMON   BANK0   BANK1   BANK3   BANK2
  2579 ;;      Params:         5       0       0       0       0
  2580 ;;      Locals:         0       0       0       0       0
  2581 ;;      Temps:          0       0       0       0       0
  2582 ;;      Totals:         5       0       0       0       0
  2583 ;;Total ram usage:        5 bytes
  2584 ;; Hardware stack levels used:    1
  2585 ;; Hardware stack levels required when called:    1
  2586 ;; This function calls:
  2587 ;;		Nothing
  2588 ;; This function is called by:
  2589 ;;		_main
  2590 ;; This function uses a non-reentrant model
  2591 ;;
  2592                           psect	text7,local,class=CODE,delta=2,merge=1,group=0
  2593                           	line	4
  2594                           global __ptext7
  2595                           __ptext7:	;psect for function _initUSART
  2596  0A3F                     psect	text7
  2597                           	file	"USART.c"
  2598                           	line	4
  2599                           	global	__size_of_initUSART
  2600                           	__size_of_initUSART	equ	__end_of_initUSART-_initUSART
  2601  007B                     	
  2602                           _initUSART:	
  2603  0A3F                     ;incstack = 0
  2604                           	opt	stack 6
  2605                           ; Regs used in _initUSART: [wreg+status,2+status,0]
  2606                           	line	5
  2607                           	
  2608                           l1482:	
  2609  0A3F                     ;USART.c: 5:     TRISCbits.TRISC7 = 1;
  2610                           	bsf	status, 5	;RP0=1, select bank1
  2611  0A3F  1683               	bcf	status, 6	;RP1=0, select bank1
  2612  0A40  1303               	bsf	(135)^080h,7	;volatile
  2613  0A41  1787               	line	7
  2614                           ;USART.c: 7:     PIE1bits.RCIE = 0;
  2615                           	bcf	(140)^080h,5	;volatile
  2616  0A42  128C               	line	9
  2617                           ;USART.c: 9:     RCSTAbits.SPEN = 1;
  2618                           	bcf	status, 5	;RP0=0, select bank0
  2619  0A43  1283               	bcf	status, 6	;RP1=0, select bank0
  2620  0A44  1303               	bsf	(24),7	;volatile
  2621  0A45  1798               	line	10
  2622                           	
  2623                           l1484:	
  2624  0A46                     ;USART.c: 10:     TXSTAbits.SYNC = syncrono;
  2625                           	rrf	(initUSART@syncrono),w
  2626  0A46  0C76               	bsf	status, 5	;RP0=1, select bank1
  2627  0A47  1683               	bcf	status, 6	;RP1=0, select bank1
  2628  0A48  1303               	skipc
  2629  0A49  1C03               	bcf	(152)^080h,4	;volatile
  2630  0A4A  1218               	skipnc
  2631  0A4B  1803               	bsf	(152)^080h,4	;volatile
  2632  0A4C  1618               	line	12
  2633                           	
  2634                           l1486:	
  2635  0A4D                     ;USART.c: 12:     if(rcint){
  2636                           	movf	((initUSART@rcint)),w
  2637  0A4D  0875               	btfsc	status,2
  2638  0A4E  1903               	goto	u1581
  2639  0A4F  2A51               	goto	u1580
  2640  0A50  2A52               u1581:
  2641  0A51                     	goto	l1490
  2642  0A51  2A5C               u1580:
  2643  0A52                     	line	13
  2644                           	
  2645                           l1488:	
  2646  0A52                     ;USART.c: 13:         RCSTAbits.CREN = 1;
  2647                           	bcf	status, 5	;RP0=0, select bank0
  2648  0A52  1283               	bcf	status, 6	;RP1=0, select bank0
  2649  0A53  1303               	bsf	(24),4	;volatile
  2650  0A54  1618               	line	14
  2651                           ;USART.c: 14:         PIE1bits.RCIE = 1;
  2652                           	bsf	status, 5	;RP0=1, select bank1
  2653  0A55  1683               	bcf	status, 6	;RP1=0, select bank1
  2654  0A56  1303               	bsf	(140)^080h,5	;volatile
  2655  0A57  168C               	line	15
  2656                           ;USART.c: 15:         PIR1bits.RCIF = 0;
  2657                           	bcf	status, 5	;RP0=0, select bank0
  2658  0A58  1283               	bcf	status, 6	;RP1=0, select bank0
  2659  0A59  1303               	bcf	(12),5	;volatile
  2660  0A5A  128C               	goto	l1490
  2661  0A5B  2A5C               	line	16
  2662                           ;USART.c: 16:     }
  2663                           	
  2664                           l134:	
  2665  0A5C                     	line	17
  2666                           	
  2667                           l1490:	
  2668  0A5C                     ;USART.c: 17:     if(txint){
  2669                           	movf	((initUSART@txint)),w
  2670  0A5C  0874               	btfsc	status,2
  2671  0A5D  1903               	goto	u1591
  2672  0A5E  2A60               	goto	u1590
  2673  0A5F  2A61               u1591:
  2674  0A60                     	goto	l135
  2675  0A60  2A64               u1590:
  2676  0A61                     	line	18
  2677                           	
  2678                           l1492:	
  2679  0A61                     ;USART.c: 18:         TXSTAbits.TXEN = 1;
  2680                           	bsf	status, 5	;RP0=1, select bank1
  2681  0A61  1683               	bcf	status, 6	;RP1=0, select bank1
  2682  0A62  1303               	bsf	(152)^080h,5	;volatile
  2683  0A63  1698               	line	19
  2684                           ;USART.c: 19:     }
  2685                           	
  2686                           l135:	
  2687  0A64                     	line	21
  2688                           ;USART.c: 21:     BAUDCTLbits.BRG16 = 1;
  2689                           	bsf	status, 5	;RP0=1, select bank3
  2690  0A64  1683               	bsf	status, 6	;RP1=1, select bank3
  2691  0A65  1703               	bsf	(391)^0180h,3	;volatile
  2692  0A66  1587               	line	22
  2693                           ;USART.c: 22:     TXSTAbits.BRGH = 0;
  2694                           	bsf	status, 5	;RP0=1, select bank1
  2695  0A67  1683               	bcf	status, 6	;RP1=0, select bank1
  2696  0A68  1303               	bcf	(152)^080h,2	;volatile
  2697  0A69  1118               	line	24
  2698                           	
  2699                           l1494:	
  2700  0A6A                     ;USART.c: 24:     if(baudrate == 300){
  2701                           		movlw	44
  2702  0A6A  302C               	xorwf	((initUSART@baudrate)),w
  2703  0A6B  0672               	skipz
  2704  0A6C  1D03               	goto	u1601
  2705  0A6D  2A72               	decf	((initUSART@baudrate+1)),w
  2706  0A6E  0373               	btfss	status,2
  2707  0A6F  1D03               	goto	u1601
  2708  0A70  2A72               	goto	u1600
  2709  0A71  2A73               u1601:
  2710  0A72                     	goto	l1498
  2711  0A72  2A78               u1600:
  2712  0A73                     	line	25
  2713                           	
  2714                           l1496:	
  2715  0A73                     ;USART.c: 25:         SPBRG = 0x40;
  2716                           	movlw	low(040h)
  2717  0A73  3040               	movwf	(153)^080h	;volatile
  2718  0A74  0099               	line	26
  2719                           ;USART.c: 26:         SPBRGH = 0x03;
  2720                           	movlw	low(03h)
  2721  0A75  3003               	movwf	(154)^080h	;volatile
  2722  0A76  009A               	line	27
  2723                           ;USART.c: 27:     } else if (baudrate == 1200){
  2724                           	goto	l1518
  2725  0A77  2AB7               	
  2726                           l136:	
  2727  0A78                     	
  2728                           l1498:	
  2729  0A78                     		movlw	176
  2730  0A78  30B0               	xorwf	((initUSART@baudrate)),w
  2731  0A79  0672               	movlw	4
  2732  0A7A  3004               	skipnz
  2733  0A7B  1903               	xorwf	((initUSART@baudrate+1)),w
  2734  0A7C  0673               	btfss	status,2
  2735  0A7D  1D03               	goto	u1611
  2736  0A7E  2A80               	goto	u1610
  2737  0A7F  2A81               u1611:
  2738  0A80                     	goto	l1502
  2739  0A80  2A84               u1610:
  2740  0A81                     	line	28
  2741                           	
  2742                           l1500:	
  2743  0A81                     ;USART.c: 28:         SPBRG = 207;
  2744                           	movlw	low(0CFh)
  2745  0A81  30CF               	movwf	(153)^080h	;volatile
  2746  0A82  0099               	line	29
  2747                           ;USART.c: 29:     } else if (baudrate == 2400){
  2748                           	goto	l1518
  2749  0A83  2AB7               	
  2750                           l138:	
  2751  0A84                     	
  2752                           l1502:	
  2753  0A84                     		movlw	96
  2754  0A84  3060               	xorwf	((initUSART@baudrate)),w
  2755  0A85  0672               	movlw	9
  2756  0A86  3009               	skipnz
  2757  0A87  1903               	xorwf	((initUSART@baudrate+1)),w
  2758  0A88  0673               	btfss	status,2
  2759  0A89  1D03               	goto	u1621
  2760  0A8A  2A8C               	goto	u1620
  2761  0A8B  2A8D               u1621:
  2762  0A8C                     	goto	l1506
  2763  0A8C  2A90               u1620:
  2764  0A8D                     	line	30
  2765                           	
  2766                           l1504:	
  2767  0A8D                     ;USART.c: 30:         SPBRG = 103;
  2768                           	movlw	low(067h)
  2769  0A8D  3067               	movwf	(153)^080h	;volatile
  2770  0A8E  0099               	line	31
  2771                           ;USART.c: 31:     } else if (baudrate == 9600){
  2772                           	goto	l1518
  2773  0A8F  2AB7               	
  2774                           l140:	
  2775  0A90                     	
  2776                           l1506:	
  2777  0A90                     		movlw	128
  2778  0A90  3080               	xorwf	((initUSART@baudrate)),w
  2779  0A91  0672               	movlw	37
  2780  0A92  3025               	skipnz
  2781  0A93  1903               	xorwf	((initUSART@baudrate+1)),w
  2782  0A94  0673               	btfss	status,2
  2783  0A95  1D03               	goto	u1631
  2784  0A96  2A98               	goto	u1630
  2785  0A97  2A99               u1631:
  2786  0A98                     	goto	l1510
  2787  0A98  2A9C               u1630:
  2788  0A99                     	line	32
  2789                           	
  2790                           l1508:	
  2791  0A99                     ;USART.c: 32:         SPBRG = 25;
  2792                           	movlw	low(019h)
  2793  0A99  3019               	movwf	(153)^080h	;volatile
  2794  0A9A  0099               	line	33
  2795                           ;USART.c: 33:     } else if (baudrate == 10417){
  2796                           	goto	l1518
  2797  0A9B  2AB7               	
  2798                           l142:	
  2799  0A9C                     	
  2800                           l1510:	
  2801  0A9C                     		movlw	177
  2802  0A9C  30B1               	xorwf	((initUSART@baudrate)),w
  2803  0A9D  0672               	movlw	40
  2804  0A9E  3028               	skipnz
  2805  0A9F  1903               	xorwf	((initUSART@baudrate+1)),w
  2806  0AA0  0673               	btfss	status,2
  2807  0AA1  1D03               	goto	u1641
  2808  0AA2  2AA4               	goto	u1640
  2809  0AA3  2AA5               u1641:
  2810  0AA4                     	goto	l1514
  2811  0AA4  2AA8               u1640:
  2812  0AA5                     	line	34
  2813                           	
  2814                           l1512:	
  2815  0AA5                     ;USART.c: 34:         SPBRG = 23;
  2816                           	movlw	low(017h)
  2817  0AA5  3017               	movwf	(153)^080h	;volatile
  2818  0AA6  0099               	line	35
  2819                           ;USART.c: 35:     } else if (baudrate == 19200){
  2820                           	goto	l1518
  2821  0AA7  2AB7               	
  2822                           l144:	
  2823  0AA8                     	
  2824                           l1514:	
  2825  0AA8                     		movlw	75
  2826  0AA8  304B               	xorwf	((initUSART@baudrate+1)),w
  2827  0AA9  0673               iorwf	((initUSART@baudrate)),w
  2828  0AAA  0472               	btfss	status,2
  2829  0AAB  1D03               	goto	u1651
  2830  0AAC  2AAE               	goto	u1650
  2831  0AAD  2AAF               u1651:
  2832  0AAE                     	goto	l1518
  2833  0AAE  2AB7               u1650:
  2834  0AAF                     	line	36
  2835                           	
  2836                           l1516:	
  2837  0AAF                     ;USART.c: 36:         SPBRG = 12;
  2838                           	movlw	low(0Ch)
  2839  0AAF  300C               	movwf	(153)^080h	;volatile
  2840  0AB0  0099               	goto	l1518
  2841  0AB1  2AB7               	line	37
  2842                           ;USART.c: 37:     }
  2843                           	
  2844                           l146:	
  2845  0AB2                     	goto	l1518
  2846  0AB2  2AB7               	
  2847                           l145:	
  2848  0AB3                     	goto	l1518
  2849  0AB3  2AB7               	
  2850                           l143:	
  2851  0AB4                     	goto	l1518
  2852  0AB4  2AB7               	
  2853                           l141:	
  2854  0AB5                     	goto	l1518
  2855  0AB5  2AB7               	
  2856                           l139:	
  2857  0AB6                     	goto	l1518
  2858  0AB6  2AB7               	
  2859                           l137:	
  2860  0AB7                     	line	38
  2861                           	
  2862                           l1518:	
  2863  0AB7                     ;USART.c: 38:     INTCONbits.PEIE = 1;
  2864                           	bsf	(11),6	;volatile
  2865  0AB7  170B               	line	39
  2866                           	
  2867                           l1520:	
  2868  0AB8                     ;USART.c: 39:     INTCONbits.GIE = 1;
  2869                           	bsf	(11),7	;volatile
  2870  0AB8  178B               	line	40
  2871                           	
  2872                           l147:	
  2873  0AB9                     	return
  2874  0AB9  0008               	opt stack 0
  2875                           GLOBAL	__end_of_initUSART
  2876                           	__end_of_initUSART:
  2877  0ABA                     	signat	_initUSART,16505
  2878                           	global	___xxtofl
  2879                           
  2880 ;; *************** function ___xxtofl *****************
  2881 ;; Defined at:
  2882 ;;		line 10 in file "C:\Program Files (x86)\Microchip\xc8\v2.00\pic\sources\c90\common\xxtofl.c"
  2883 ;; Parameters:    Size  Location     Type
  2884 ;;  sign            1    wreg     unsigned char 
  2885 ;;  val             4    2[COMMON] long 
  2886 ;; Auto vars:     Size  Location     Type
  2887 ;;  sign            1    4[BANK0 ] unsigned char 
  2888 ;;  arg             4    6[BANK0 ] unsigned long 
  2889 ;;  exp             1    5[BANK0 ] unsigned char 
  2890 ;; Return value:  Size  Location     Type
  2891 ;;                  4    2[COMMON] unsigned char 
  2892 ;; Registers used:
  2893 ;;		wreg, status,2, status,0
  2894 ;; Tracked objects:
  2895 ;;		On entry : 0/0
  2896 ;;		On exit  : 0/0
  2897 ;;		Unchanged: 0/0
  2898 ;; Data sizes:     COMMON   BANK0   BANK1   BANK3   BANK2
  2899 ;;      Params:         4       0       0       0       0
  2900 ;;      Locals:         0       6       0       0       0
  2901 ;;      Temps:          0       4       0       0       0
  2902 ;;      Totals:         4      10       0       0       0
  2903 ;;Total ram usage:       14 bytes
  2904 ;; Hardware stack levels used:    1
  2905 ;; Hardware stack levels required when called:    1
  2906 ;; This function calls:
  2907 ;;		Nothing
  2908 ;; This function is called by:
  2909 ;;		_main
  2910 ;; This function uses a non-reentrant model
  2911 ;;
  2912                           psect	text8,local,class=CODE,delta=2,merge=1,group=1
  2913                           	file	"C:\Program Files (x86)\Microchip\xc8\v2.00\pic\sources\c90\common\xxtofl.c"
  2914                           	line	10
  2915                           global __ptext8
  2916                           __ptext8:	;psect for function ___xxtofl
  2917  0667                     psect	text8
  2918                           	file	"C:\Program Files (x86)\Microchip\xc8\v2.00\pic\sources\c90\common\xxtofl.c"
  2919                           	line	10
  2920                           	global	__size_of___xxtofl
  2921                           	__size_of___xxtofl	equ	__end_of___xxtofl-___xxtofl
  2922  00C4                     	
  2923                           ___xxtofl:	
  2924  0667                     ;incstack = 0
  2925                           	opt	stack 6
  2926                           ; Regs used in ___xxtofl: [wreg+status,2+status,0]
  2927                           ;___xxtofl@sign stored from wreg
  2928                           	bcf	status, 5	;RP0=0, select bank0
  2929  0667  1283               	bcf	status, 6	;RP1=0, select bank0
  2930  0668  1303               	movwf	(___xxtofl@sign)
  2931  0669  00A4               	line	15
  2932                           	
  2933                           l2320:	
  2934  066A                     	movf	((___xxtofl@sign)),w
  2935  066A  0824               	btfsc	status,2
  2936  066B  1903               	goto	u3551
  2937  066C  2E6E               	goto	u3550
  2938  066D  2E6F               u3551:
  2939  066E                     	goto	l2326
  2940  066E  2E83               u3550:
  2941  066F                     	
  2942                           l2322:	
  2943  066F                     	btfss	(___xxtofl@val+3),7
  2944  066F  1FF5               	goto	u3561
  2945  0670  2E72               	goto	u3560
  2946  0671  2E73               u3561:
  2947  0672                     	goto	l2326
  2948  0672  2E83               u3560:
  2949  0673                     	line	16
  2950                           	
  2951                           l2324:	
  2952  0673                     	comf	(___xxtofl@val)+0,w
  2953  0673  0972               	movwf	(___xxtofl@arg)
  2954  0674  00A6               	comf	(___xxtofl@val)+1,w
  2955  0675  0973               	movwf	(___xxtofl@arg+1)
  2956  0676  00A7               	comf	(___xxtofl@val)+2,w
  2957  0677  0974               	movwf	(___xxtofl@arg+2)
  2958  0678  00A8               	comf	(___xxtofl@val)+3,w
  2959  0679  0975               	movwf	(___xxtofl@arg+3)
  2960  067A  00A9               	incf	(___xxtofl@arg),f
  2961  067B  0AA6               	skipnz
  2962  067C  1903               	incf	(___xxtofl@arg+1),f
  2963  067D  0AA7               	skipnz
  2964  067E  1903               	incf	(___xxtofl@arg+2),f
  2965  067F  0AA8               	skipnz
  2966  0680  1903               	incf	(___xxtofl@arg+3),f
  2967  0681  0AA9               	line	17
  2968                           	goto	l647
  2969  0682  2E8B               	line	18
  2970                           	
  2971                           l646:	
  2972  0683                     	line	19
  2973                           	
  2974                           l2326:	
  2975  0683                     	movf	(___xxtofl@val+3),w
  2976  0683  0875               	movwf	(___xxtofl@arg+3)
  2977  0684  00A9               	movf	(___xxtofl@val+2),w
  2978  0685  0874               	movwf	(___xxtofl@arg+2)
  2979  0686  00A8               	movf	(___xxtofl@val+1),w
  2980  0687  0873               	movwf	(___xxtofl@arg+1)
  2981  0688  00A7               	movf	(___xxtofl@val),w
  2982  0689  0872               	movwf	(___xxtofl@arg)
  2983  068A  00A6               
  2984                           	line	20
  2985                           	
  2986                           l647:	
  2987  068B                     	line	21
  2988                           	movf	(___xxtofl@val+3),w
  2989  068B  0875               	iorwf	(___xxtofl@val+2),w
  2990  068C  0474               	iorwf	(___xxtofl@val+1),w
  2991  068D  0473               	iorwf	(___xxtofl@val),w
  2992  068E  0472               	skipz
  2993  068F  1D03               	goto	u3571
  2994  0690  2E92               	goto	u3570
  2995  0691  2E93               u3571:
  2996  0692                     	goto	l2332
  2997  0692  2E9D               u3570:
  2998  0693                     	line	22
  2999                           	
  3000                           l2328:	
  3001  0693                     	movlw	0x0
  3002  0693  3000               	movwf	(?___xxtofl+3)
  3003  0694  00F5               	movlw	0x0
  3004  0695  3000               	movwf	(?___xxtofl+2)
  3005  0696  00F4               	movlw	0x0
  3006  0697  3000               	movwf	(?___xxtofl+1)
  3007  0698  00F3               	movlw	0x0
  3008  0699  3000               	movwf	(?___xxtofl)
  3009  069A  00F2               
  3010                           	goto	l649
  3011  069B  2F2A               	
  3012                           l2330:	
  3013  069C                     	goto	l649
  3014  069C  2F2A               	
  3015                           l648:	
  3016  069D                     	line	23
  3017                           	
  3018                           l2332:	
  3019  069D                     	movlw	low(096h)
  3020  069D  3096               	movwf	(??___xxtofl+0)+0
  3021  069E  00A0               	movf	(??___xxtofl+0)+0,w
  3022  069F  0820               	movwf	(___xxtofl@exp)
  3023  06A0  00A5               	line	24
  3024                           	goto	l2336
  3025  06A1  2EB0               	
  3026                           l651:	
  3027  06A2                     	line	25
  3028                           	
  3029                           l2334:	
  3030  06A2                     	movlw	low(01h)
  3031  06A2  3001               	movwf	(??___xxtofl+0)+0
  3032  06A3  00A0               	movf	(??___xxtofl+0)+0,w
  3033  06A4  0820               	addwf	(___xxtofl@exp),f
  3034  06A5  07A5               	line	26
  3035                           	movlw	01h
  3036  06A6  3001               u3585:
  3037  06A7                     	clrc
  3038  06A7  1003               	rrf	(___xxtofl@arg+3),f
  3039  06A8  0CA9               	rrf	(___xxtofl@arg+2),f
  3040  06A9  0CA8               	rrf	(___xxtofl@arg+1),f
  3041  06AA  0CA7               	rrf	(___xxtofl@arg),f
  3042  06AB  0CA6               	addlw	-1
  3043  06AC  3EFF               	skipz
  3044  06AD  1D03               	goto	u3585
  3045  06AE  2EA7               
  3046                           	goto	l2336
  3047  06AF  2EB0               	line	27
  3048                           	
  3049                           l650:	
  3050  06B0                     	line	24
  3051                           	
  3052                           l2336:	
  3053  06B0                     	movlw	high highword(0FE000000h)
  3054  06B0  30FE               	andwf	(___xxtofl@arg+3),w
  3055  06B1  0529               	btfss	status,2
  3056  06B2  1D03               	goto	u3591
  3057  06B3  2EB5               	goto	u3590
  3058  06B4  2EB6               u3591:
  3059  06B5                     	goto	l2334
  3060  06B5  2EA2               u3590:
  3061  06B6                     	goto	l653
  3062  06B6  2ED3               	
  3063                           l652:	
  3064  06B7                     	line	28
  3065                           	goto	l653
  3066  06B7  2ED3               	
  3067                           l654:	
  3068  06B8                     	line	29
  3069                           	
  3070                           l2338:	
  3071  06B8                     	movlw	low(01h)
  3072  06B8  3001               	movwf	(??___xxtofl+0)+0
  3073  06B9  00A0               	movf	(??___xxtofl+0)+0,w
  3074  06BA  0820               	addwf	(___xxtofl@exp),f
  3075  06BB  07A5               	line	30
  3076                           	
  3077                           l2340:	
  3078  06BC                     	movlw	01h
  3079  06BC  3001               	addwf	(___xxtofl@arg),f
  3080  06BD  07A6               	movlw	0
  3081  06BE  3000               	skipnc
  3082  06BF  1803               movlw 1
  3083  06C0  3001               	addwf	(___xxtofl@arg+1),f
  3084  06C1  07A7               	movlw	0
  3085  06C2  3000               	skipnc
  3086  06C3  1803               movlw 1
  3087  06C4  3001               	addwf	(___xxtofl@arg+2),f
  3088  06C5  07A8               	movlw	0
  3089  06C6  3000               	skipnc
  3090  06C7  1803               movlw 1
  3091  06C8  3001               	addwf	(___xxtofl@arg+3),f
  3092  06C9  07A9               	line	31
  3093                           	
  3094                           l2342:	
  3095  06CA                     	movlw	01h
  3096  06CA  3001               u3605:
  3097  06CB                     	clrc
  3098  06CB  1003               	rrf	(___xxtofl@arg+3),f
  3099  06CC  0CA9               	rrf	(___xxtofl@arg+2),f
  3100  06CD  0CA8               	rrf	(___xxtofl@arg+1),f
  3101  06CE  0CA7               	rrf	(___xxtofl@arg),f
  3102  06CF  0CA6               	addlw	-1
  3103  06D0  3EFF               	skipz
  3104  06D1  1D03               	goto	u3605
  3105  06D2  2ECB               
  3106                           	line	32
  3107                           	
  3108                           l653:	
  3109  06D3                     	line	28
  3110                           	movlw	high highword(0FF000000h)
  3111  06D3  30FF               	andwf	(___xxtofl@arg+3),w
  3112  06D4  0529               	btfss	status,2
  3113  06D5  1D03               	goto	u3611
  3114  06D6  2ED8               	goto	u3610
  3115  06D7  2ED9               u3611:
  3116  06D8                     	goto	l2338
  3117  06D8  2EB8               u3610:
  3118  06D9                     	goto	l2346
  3119  06D9  2EE7               	
  3120                           l655:	
  3121  06DA                     	line	33
  3122                           	goto	l2346
  3123  06DA  2EE7               	
  3124                           l657:	
  3125  06DB                     	line	34
  3126                           	
  3127                           l2344:	
  3128  06DB                     	movlw	01h
  3129  06DB  3001               	subwf	(___xxtofl@exp),f
  3130  06DC  02A5               	line	35
  3131                           	movlw	01h
  3132  06DD  3001               	movwf	(??___xxtofl+0)+0
  3133  06DE  00A0               u3625:
  3134  06DF                     	clrc
  3135  06DF  1003               	rlf	(___xxtofl@arg),f
  3136  06E0  0DA6               	rlf	(___xxtofl@arg+1),f
  3137  06E1  0DA7               	rlf	(___xxtofl@arg+2),f
  3138  06E2  0DA8               	rlf	(___xxtofl@arg+3),f
  3139  06E3  0DA9               	decfsz	(??___xxtofl+0)+0
  3140  06E4  0BA0               	goto	u3625
  3141  06E5  2EDF               	goto	l2346
  3142  06E6  2EE7               	line	36
  3143                           	
  3144                           l656:	
  3145  06E7                     	line	33
  3146                           	
  3147                           l2346:	
  3148  06E7                     	btfsc	(___xxtofl@arg+2),(23)&7
  3149  06E7  1BA8               	goto	u3631
  3150  06E8  2EEA               	goto	u3630
  3151  06E9  2EEB               u3631:
  3152  06EA                     	goto	l660
  3153  06EA  2EF2               u3630:
  3154  06EB                     	
  3155                           l2348:	
  3156  06EB                     	movlw	low(02h)
  3157  06EB  3002               	subwf	(___xxtofl@exp),w
  3158  06EC  0225               	skipnc
  3159  06ED  1803               	goto	u3641
  3160  06EE  2EF0               	goto	u3640
  3161  06EF  2EF1               u3641:
  3162  06F0                     	goto	l2344
  3163  06F0  2EDB               u3640:
  3164  06F1                     	goto	l660
  3165  06F1  2EF2               	
  3166                           l659:	
  3167  06F2                     	
  3168                           l660:	
  3169  06F2                     	line	37
  3170                           	btfsc	(___xxtofl@exp),(0)&7
  3171  06F2  1825               	goto	u3651
  3172  06F3  2EF5               	goto	u3650
  3173  06F4  2EF6               u3651:
  3174  06F5                     	goto	l661
  3175  06F5  2EFE               u3650:
  3176  06F6                     	line	38
  3177                           	
  3178                           l2350:	
  3179  06F6                     	movlw	0FFh
  3180  06F6  30FF               	andwf	(___xxtofl@arg),f
  3181  06F7  05A6               	movlw	0FFh
  3182  06F8  30FF               	andwf	(___xxtofl@arg+1),f
  3183  06F9  05A7               	movlw	07Fh
  3184  06FA  307F               	andwf	(___xxtofl@arg+2),f
  3185  06FB  05A8               	movlw	0FFh
  3186  06FC  30FF               	andwf	(___xxtofl@arg+3),f
  3187  06FD  05A9               	
  3188                           l661:	
  3189  06FE                     	line	39
  3190                           	clrc
  3191  06FE  1003               	rrf	(___xxtofl@exp),f
  3192  06FF  0CA5               
  3193                           	line	40
  3194                           	
  3195                           l2352:	
  3196  0700                     	movf	(___xxtofl@exp),w
  3197  0700  0825               	movwf	(??___xxtofl+0)+0
  3198  0701  00A0               	clrf	(??___xxtofl+0)+0+1
  3199  0702  01A1               	clrf	(??___xxtofl+0)+0+2
  3200  0703  01A2               	clrf	(??___xxtofl+0)+0+3
  3201  0704  01A3               	movlw	018h
  3202  0705  3018               u3665:
  3203  0706                     	clrc
  3204  0706  1003               	rlf	(??___xxtofl+0)+0,f
  3205  0707  0DA0               	rlf	(??___xxtofl+0)+1,f
  3206  0708  0DA1               	rlf	(??___xxtofl+0)+2,f
  3207  0709  0DA2               	rlf	(??___xxtofl+0)+3,f
  3208  070A  0DA3               u3660:
  3209  070B                     	addlw	-1
  3210  070B  3EFF               	skipz
  3211  070C  1D03               	goto	u3665
  3212  070D  2F06               	movf	0+(??___xxtofl+0)+0,w
  3213  070E  0820               	iorwf	(___xxtofl@arg),f
  3214  070F  04A6               	movf	1+(??___xxtofl+0)+0,w
  3215  0710  0821               	iorwf	(___xxtofl@arg+1),f
  3216  0711  04A7               	movf	2+(??___xxtofl+0)+0,w
  3217  0712  0822               	iorwf	(___xxtofl@arg+2),f
  3218  0713  04A8               	movf	3+(??___xxtofl+0)+0,w
  3219  0714  0823               	iorwf	(___xxtofl@arg+3),f
  3220  0715  04A9               	line	41
  3221                           	
  3222                           l2354:	
  3223  0716                     	movf	((___xxtofl@sign)),w
  3224  0716  0824               	btfsc	status,2
  3225  0717  1903               	goto	u3671
  3226  0718  2F1A               	goto	u3670
  3227  0719  2F1B               u3671:
  3228  071A                     	goto	l2360
  3229  071A  2F21               u3670:
  3230  071B                     	
  3231                           l2356:	
  3232  071B                     	btfss	(___xxtofl@val+3),7
  3233  071B  1FF5               	goto	u3681
  3234  071C  2F1E               	goto	u3680
  3235  071D  2F1F               u3681:
  3236  071E                     	goto	l2360
  3237  071E  2F21               u3680:
  3238  071F                     	line	42
  3239                           	
  3240                           l2358:	
  3241  071F                     	bsf	(___xxtofl@arg)+(31/8),(31)&7
  3242  071F  17A9               	goto	l2360
  3243  0720  2F21               	
  3244                           l662:	
  3245  0721                     	line	43
  3246                           	
  3247                           l2360:	
  3248  0721                     	movf	(___xxtofl@arg+3),w
  3249  0721  0829               	movwf	(?___xxtofl+3)
  3250  0722  00F5               	movf	(___xxtofl@arg+2),w
  3251  0723  0828               	movwf	(?___xxtofl+2)
  3252  0724  00F4               	movf	(___xxtofl@arg+1),w
  3253  0725  0827               	movwf	(?___xxtofl+1)
  3254  0726  00F3               	movf	(___xxtofl@arg),w
  3255  0727  0826               	movwf	(?___xxtofl)
  3256  0728  00F2               
  3257                           	goto	l649
  3258  0729  2F2A               	
  3259                           l2362:	
  3260  072A                     	line	44
  3261                           	
  3262                           l649:	
  3263  072A                     	return
  3264  072A  0008               	opt stack 0
  3265                           GLOBAL	__end_of___xxtofl
  3266                           	__end_of___xxtofl:
  3267  072B                     	signat	___xxtofl,8316
  3268                           	global	___fltol
  3269                           
  3270 ;; *************** function ___fltol *****************
  3271 ;; Defined at:
  3272 ;;		line 43 in file "C:\Program Files (x86)\Microchip\xc8\v2.00\pic\sources\c90\common\fltol.c"
  3273 ;; Parameters:    Size  Location     Type
  3274 ;;  f1              4    2[COMMON] unsigned char 
  3275 ;; Auto vars:     Size  Location     Type
  3276 ;;  exp1            1    7[COMMON] unsigned char 
  3277 ;;  sign1           1    6[COMMON] unsigned char 
  3278 ;; Return value:  Size  Location     Type
  3279 ;;                  4    2[COMMON] long 
  3280 ;; Registers used:
  3281 ;;		wreg, status,2, status,0
  3282 ;; Tracked objects:
  3283 ;;		On entry : 0/0
  3284 ;;		On exit  : 0/0
  3285 ;;		Unchanged: 0/0
  3286 ;; Data sizes:     COMMON   BANK0   BANK1   BANK3   BANK2
  3287 ;;      Params:         4       0       0       0       0
  3288 ;;      Locals:         2       0       0       0       0
  3289 ;;      Temps:          0       5       0       0       0
  3290 ;;      Totals:         6       5       0       0       0
  3291 ;;Total ram usage:       11 bytes
  3292 ;; Hardware stack levels used:    1
  3293 ;; Hardware stack levels required when called:    1
  3294 ;; This function calls:
  3295 ;;		Nothing
  3296 ;; This function is called by:
  3297 ;;		_main
  3298 ;; This function uses a non-reentrant model
  3299 ;;
  3300                           psect	text9,local,class=CODE,delta=2,merge=1,group=1
  3301                           	file	"C:\Program Files (x86)\Microchip\xc8\v2.00\pic\sources\c90\common\fltol.c"
  3302                           	line	43
  3303                           global __ptext9
  3304                           __ptext9:	;psect for function ___fltol
  3305  072B                     psect	text9
  3306                           	file	"C:\Program Files (x86)\Microchip\xc8\v2.00\pic\sources\c90\common\fltol.c"
  3307                           	line	43
  3308                           	global	__size_of___fltol
  3309                           	__size_of___fltol	equ	__end_of___fltol-___fltol
  3310  009C                     	
  3311                           ___fltol:	
  3312  072B                     ;incstack = 0
  3313                           	opt	stack 6
  3314                           ; Regs used in ___fltol: [wreg+status,2+status,0]
  3315                           	line	47
  3316                           	
  3317                           l2144:	
  3318  072B                     	movf	(___fltol@f1),w
  3319  072B  0872               	bcf	status, 5	;RP0=0, select bank0
  3320  072C  1283               	bcf	status, 6	;RP1=0, select bank0
  3321  072D  1303               	movwf	(??___fltol+0)+0
  3322  072E  00A0               	movf	(___fltol@f1+1),w
  3323  072F  0873               	movwf	((??___fltol+0)+0+1)
  3324  0730  00A1               	movf	(___fltol@f1+2),w
  3325  0731  0874               	movwf	((??___fltol+0)+0+2)
  3326  0732  00A2               	movf	(___fltol@f1+3),w
  3327  0733  0875               	movwf	((??___fltol+0)+0+3)
  3328  0734  00A3               	clrc
  3329  0735  1003               	rlf	(??___fltol+0)+2,w
  3330  0736  0D22               	rlf	(??___fltol+0)+3,w
  3331  0737  0D23               	movwf	(??___fltol+4)+0
  3332  0738  00A4               	movf	(??___fltol+4)+0,w
  3333  0739  0824               	movwf	(___fltol@exp1)
  3334  073A  00F7               	movf	(((___fltol@exp1))),w
  3335  073B  0877               	btfss	status,2
  3336  073C  1D03               	goto	u3081
  3337  073D  2F3F               	goto	u3080
  3338  073E  2F40               u3081:
  3339  073F                     	goto	l2150
  3340  073F  2F4A               u3080:
  3341  0740                     	line	48
  3342                           	
  3343                           l2146:	
  3344  0740                     	movlw	high highword(0)
  3345  0740  3000               	movwf	(?___fltol+3)
  3346  0741  00F5               	movlw	low highword(0)
  3347  0742  3000               	movwf	(?___fltol+2)
  3348  0743  00F4               	movlw	high(0)
  3349  0744  3000               	movwf	(?___fltol+1)
  3350  0745  00F3               	movlw	low(0)
  3351  0746  3000               	movwf	(?___fltol)
  3352  0747  00F2               
  3353                           	goto	l425
  3354  0748  2FC6               	
  3355                           l2148:	
  3356  0749                     	goto	l425
  3357  0749  2FC6               	
  3358                           l424:	
  3359  074A                     	line	49
  3360                           	
  3361                           l2150:	
  3362  074A                     	movf	(___fltol@f1),w
  3363  074A  0872               	movwf	(??___fltol+0)+0
  3364  074B  00A0               	movf	(___fltol@f1+1),w
  3365  074C  0873               	movwf	((??___fltol+0)+0+1)
  3366  074D  00A1               	movf	(___fltol@f1+2),w
  3367  074E  0874               	movwf	((??___fltol+0)+0+2)
  3368  074F  00A2               	movf	(___fltol@f1+3),w
  3369  0750  0875               	movwf	((??___fltol+0)+0+3)
  3370  0751  00A3               	movlw	01Fh
  3371  0752  301F               u3095:
  3372  0753                     	clrc
  3373  0753  1003               	rrf	(??___fltol+0)+3,f
  3374  0754  0CA3               	rrf	(??___fltol+0)+2,f
  3375  0755  0CA2               	rrf	(??___fltol+0)+1,f
  3376  0756  0CA1               	rrf	(??___fltol+0)+0,f
  3377  0757  0CA0               u3090:
  3378  0758                     	addlw	-1
  3379  0758  3EFF               	skipz
  3380  0759  1D03               	goto	u3095
  3381  075A  2F53               	movf	0+(??___fltol+0)+0,w
  3382  075B  0820               	movwf	(??___fltol+4)+0
  3383  075C  00A4               	movf	(??___fltol+4)+0,w
  3384  075D  0824               	movwf	(___fltol@sign1)
  3385  075E  00F6               	line	50
  3386                           	
  3387                           l2152:	
  3388  075F                     	bsf	(___fltol@f1)+(23/8),(23)&7
  3389  075F  17F4               	line	51
  3390                           	
  3391                           l2154:	
  3392  0760                     	movlw	0FFh
  3393  0760  30FF               	andwf	(___fltol@f1),f
  3394  0761  05F2               	movlw	0FFh
  3395  0762  30FF               	andwf	(___fltol@f1+1),f
  3396  0763  05F3               	movlw	0FFh
  3397  0764  30FF               	andwf	(___fltol@f1+2),f
  3398  0765  05F4               	movlw	0
  3399  0766  3000               	andwf	(___fltol@f1+3),f
  3400  0767  05F5               	line	52
  3401                           	
  3402                           l2156:	
  3403  0768                     	movlw	096h
  3404  0768  3096               	subwf	(___fltol@exp1),f
  3405  0769  02F7               	line	53
  3406                           	
  3407                           l2158:	
  3408  076A                     	btfss	(___fltol@exp1),7
  3409  076A  1FF7               	goto	u3101
  3410  076B  2F6D               	goto	u3100
  3411  076C  2F6E               u3101:
  3412  076D                     	goto	l2168
  3413  076D  2F93               u3100:
  3414  076E                     	line	54
  3415                           	
  3416                           l2160:	
  3417  076E                     	movf	(___fltol@exp1),w
  3418  076E  0877               	xorlw	80h
  3419  076F  3A80               	addlw	-((-23)^80h)
  3420  0770  3E97               	skipnc
  3421  0771  1803               	goto	u3111
  3422  0772  2F74               	goto	u3110
  3423  0773  2F75               u3111:
  3424  0774                     	goto	l2166
  3425  0774  2F80               u3110:
  3426  0775                     	line	55
  3427                           	
  3428                           l2162:	
  3429  0775                     	movlw	high highword(0)
  3430  0775  3000               	movwf	(?___fltol+3)
  3431  0776  00F5               	movlw	low highword(0)
  3432  0777  3000               	movwf	(?___fltol+2)
  3433  0778  00F4               	movlw	high(0)
  3434  0779  3000               	movwf	(?___fltol+1)
  3435  077A  00F3               	movlw	low(0)
  3436  077B  3000               	movwf	(?___fltol)
  3437  077C  00F2               
  3438                           	goto	l425
  3439  077D  2FC6               	
  3440                           l2164:	
  3441  077E                     	goto	l425
  3442  077E  2FC6               	
  3443                           l427:	
  3444  077F                     	goto	l2166
  3445  077F  2F80               	line	56
  3446                           	
  3447                           l428:	
  3448  0780                     	line	57
  3449                           	
  3450                           l2166:	
  3451  0780                     	movlw	01h
  3452  0780  3001               u3125:
  3453  0781                     	clrc
  3454  0781  1003               	rrf	(___fltol@f1+3),f
  3455  0782  0CF5               	rrf	(___fltol@f1+2),f
  3456  0783  0CF4               	rrf	(___fltol@f1+1),f
  3457  0784  0CF3               	rrf	(___fltol@f1),f
  3458  0785  0CF2               	addlw	-1
  3459  0786  3EFF               	skipz
  3460  0787  1D03               	goto	u3125
  3461  0788  2F81               
  3462                           	line	58
  3463                           	movlw	low(01h)
  3464  0789  3001               	movwf	(??___fltol+0)+0
  3465  078A  00A0               	movf	(??___fltol+0)+0,w
  3466  078B  0820               	addwf	(___fltol@exp1),f
  3467  078C  07F7               	btfss	status,2
  3468  078D  1D03               	goto	u3131
  3469  078E  2F90               	goto	u3130
  3470  078F  2F91               u3131:
  3471  0790                     	goto	l2166
  3472  0790  2F80               u3130:
  3473  0791                     	goto	l2176
  3474  0791  2FB6               	
  3475                           l429:	
  3476  0792                     	line	59
  3477                           	goto	l2176
  3478  0792  2FB6               	
  3479                           l426:	
  3480  0793                     	line	60
  3481                           	
  3482                           l2168:	
  3483  0793                     	movlw	low(020h)
  3484  0793  3020               	subwf	(___fltol@exp1),w
  3485  0794  0277               	skipc
  3486  0795  1C03               	goto	u3141
  3487  0796  2F98               	goto	u3140
  3488  0797  2F99               u3141:
  3489  0798                     	goto	l432
  3490  0798  2FAF               u3140:
  3491  0799                     	line	61
  3492                           	
  3493                           l2170:	
  3494  0799                     	movlw	high highword(0)
  3495  0799  3000               	movwf	(?___fltol+3)
  3496  079A  00F5               	movlw	low highword(0)
  3497  079B  3000               	movwf	(?___fltol+2)
  3498  079C  00F4               	movlw	high(0)
  3499  079D  3000               	movwf	(?___fltol+1)
  3500  079E  00F3               	movlw	low(0)
  3501  079F  3000               	movwf	(?___fltol)
  3502  07A0  00F2               
  3503                           	goto	l425
  3504  07A1  2FC6               	
  3505                           l2172:	
  3506  07A2                     	goto	l425
  3507  07A2  2FC6               	
  3508                           l431:	
  3509  07A3                     	line	62
  3510                           	goto	l432
  3511  07A3  2FAF               	
  3512                           l433:	
  3513  07A4                     	line	63
  3514                           	
  3515                           l2174:	
  3516  07A4                     	movlw	01h
  3517  07A4  3001               	movwf	(??___fltol+0)+0
  3518  07A5  00A0               u3155:
  3519  07A6                     	clrc
  3520  07A6  1003               	rlf	(___fltol@f1),f
  3521  07A7  0DF2               	rlf	(___fltol@f1+1),f
  3522  07A8  0DF3               	rlf	(___fltol@f1+2),f
  3523  07A9  0DF4               	rlf	(___fltol@f1+3),f
  3524  07AA  0DF5               	decfsz	(??___fltol+0)+0
  3525  07AB  0BA0               	goto	u3155
  3526  07AC  2FA6               	line	64
  3527                           	movlw	01h
  3528  07AD  3001               	subwf	(___fltol@exp1),f
  3529  07AE  02F7               	line	65
  3530                           	
  3531                           l432:	
  3532  07AF                     	line	62
  3533                           	movf	((___fltol@exp1)),w
  3534  07AF  0877               	btfss	status,2
  3535  07B0  1D03               	goto	u3161
  3536  07B1  2FB3               	goto	u3160
  3537  07B2  2FB4               u3161:
  3538  07B3                     	goto	l2174
  3539  07B3  2FA4               u3160:
  3540  07B4                     	goto	l2176
  3541  07B4  2FB6               	
  3542                           l434:	
  3543  07B5                     	goto	l2176
  3544  07B5  2FB6               	line	66
  3545                           	
  3546                           l430:	
  3547  07B6                     	line	67
  3548                           	
  3549                           l2176:	
  3550  07B6                     	movf	((___fltol@sign1)),w
  3551  07B6  0876               	btfsc	status,2
  3552  07B7  1903               	goto	u3171
  3553  07B8  2FBA               	goto	u3170
  3554  07B9  2FBB               u3171:
  3555  07BA                     	goto	l435
  3556  07BA  2FC6               u3170:
  3557  07BB                     	line	68
  3558                           	
  3559                           l2178:	
  3560  07BB                     	comf	(___fltol@f1),f
  3561  07BB  09F2               	comf	(___fltol@f1+1),f
  3562  07BC  09F3               	comf	(___fltol@f1+2),f
  3563  07BD  09F4               	comf	(___fltol@f1+3),f
  3564  07BE  09F5               	incf	(___fltol@f1),f
  3565  07BF  0AF2               	skipnz
  3566  07C0  1903               	incf	(___fltol@f1+1),f
  3567  07C1  0AF3               	skipnz
  3568  07C2  1903               	incf	(___fltol@f1+2),f
  3569  07C3  0AF4               	skipnz
  3570  07C4  1903               	incf	(___fltol@f1+3),f
  3571  07C5  0AF5               	
  3572                           l435:	
  3573  07C6                     	line	69
  3574                           	line	70
  3575                           	
  3576                           l425:	
  3577  07C6                     	return
  3578  07C6  0008               	opt stack 0
  3579                           GLOBAL	__end_of___fltol
  3580                           	__end_of___fltol:
  3581  07C7                     	signat	___fltol,4220
  3582                           	global	___flneg
  3583                           
  3584 ;; *************** function ___flneg *****************
  3585 ;; Defined at:
  3586 ;;		line 15 in file "C:\Program Files (x86)\Microchip\xc8\v2.00\pic\sources\c90\common\flneg.c"
  3587 ;; Parameters:    Size  Location     Type
  3588 ;;  f1              4   10[BANK0 ] long 
  3589 ;; Auto vars:     Size  Location     Type
  3590 ;;		None
  3591 ;; Return value:  Size  Location     Type
  3592 ;;                  4   10[BANK0 ] long 
  3593 ;; Registers used:
  3594 ;;		wreg
  3595 ;; Tracked objects:
  3596 ;;		On entry : 0/0
  3597 ;;		On exit  : 0/0
  3598 ;;		Unchanged: 0/0
  3599 ;; Data sizes:     COMMON   BANK0   BANK1   BANK3   BANK2
  3600 ;;      Params:         0       4       0       0       0
  3601 ;;      Locals:         0       0       0       0       0
  3602 ;;      Temps:          0       0       0       0       0
  3603 ;;      Totals:         0       4       0       0       0
  3604 ;;Total ram usage:        4 bytes
  3605 ;; Hardware stack levels used:    1
  3606 ;; Hardware stack levels required when called:    1
  3607 ;; This function calls:
  3608 ;;		Nothing
  3609 ;; This function is called by:
  3610 ;;		_main
  3611 ;; This function uses a non-reentrant model
  3612 ;;
  3613                           psect	text10,local,class=CODE,delta=2,merge=1,group=1
  3614                           	file	"C:\Program Files (x86)\Microchip\xc8\v2.00\pic\sources\c90\common\flneg.c"
  3615                           	line	15
  3616                           global __ptext10
  3617                           __ptext10:	;psect for function ___flneg
  3618  09ED                     psect	text10
  3619                           	file	"C:\Program Files (x86)\Microchip\xc8\v2.00\pic\sources\c90\common\flneg.c"
  3620                           	line	15
  3621                           	global	__size_of___flneg
  3622                           	__size_of___flneg	equ	__end_of___flneg-___flneg
  3623  000F                     	
  3624                           ___flneg:	
  3625  09ED                     ;incstack = 0
  3626                           	opt	stack 6
  3627                           ; Regs used in ___flneg: [wreg]
  3628                           	line	17
  3629                           	
  3630                           l1534:	
  3631  09ED                     	bcf	status, 5	;RP0=0, select bank0
  3632  09ED  1283               	bcf	status, 6	;RP1=0, select bank0
  3633  09EE  1303               	movf	(___flneg@f1+3),w
  3634  09EF  082D               	iorwf	(___flneg@f1+2),w
  3635  09F0  042C               	iorwf	(___flneg@f1+1),w
  3636  09F1  042B               	iorwf	(___flneg@f1),w
  3637  09F2  042A               	skipnz
  3638  09F3  1903               	goto	u1671
  3639  09F4  29F6               	goto	u1670
  3640  09F5  29F7               u1671:
  3641  09F6                     	goto	l1538
  3642  09F6  29FA               u1670:
  3643  09F7                     	line	18
  3644                           	
  3645                           l1536:	
  3646  09F7                     	movlw	080h
  3647  09F7  3080               	xorwf	(___flneg@f1+3),f
  3648  09F8  06AD               	goto	l1538
  3649  09F9  29FA               	
  3650                           l420:	
  3651  09FA                     	line	19
  3652                           	
  3653                           l1538:	
  3654  09FA                     	goto	l421
  3655  09FA  29FB               	
  3656                           l1540:	
  3657  09FB                     	line	20
  3658                           	
  3659                           l421:	
  3660  09FB                     	return
  3661  09FB  0008               	opt stack 0
  3662                           GLOBAL	__end_of___flneg
  3663                           	__end_of___flneg:
  3664  09FC                     	signat	___flneg,4220
  3665                           	global	___flmul
  3666                           
  3667 ;; *************** function ___flmul *****************
  3668 ;; Defined at:
  3669 ;;		line 8 in file "C:\Program Files (x86)\Microchip\xc8\v2.00\pic\sources\c90\common\sprcmul.c"
  3670 ;; Parameters:    Size  Location     Type
  3671 ;;  b               4   38[BANK0 ] long 
  3672 ;;  a               4   42[BANK0 ] long 
  3673 ;; Auto vars:     Size  Location     Type
  3674 ;;  prod            4   58[BANK0 ] struct .
  3675 ;;  grs             4   53[BANK0 ] unsigned long 
  3676 ;;  temp            2   62[BANK0 ] struct .
  3677 ;;  bexp            1   57[BANK0 ] unsigned char 
  3678 ;;  aexp            1   52[BANK0 ] unsigned char 
  3679 ;;  sign            1   51[BANK0 ] unsigned char 
  3680 ;; Return value:  Size  Location     Type
  3681 ;;                  4   38[BANK0 ] unsigned char 
  3682 ;; Registers used:
  3683 ;;		wreg, status,2, status,0, btemp+1, pclath, cstack
  3684 ;; Tracked objects:
  3685 ;;		On entry : 0/0
  3686 ;;		On exit  : 0/0
  3687 ;;		Unchanged: 0/0
  3688 ;; Data sizes:     COMMON   BANK0   BANK1   BANK3   BANK2
  3689 ;;      Params:         0       8       0       0       0
  3690 ;;      Locals:         0      13       0       0       0
  3691 ;;      Temps:          0       5       0       0       0
  3692 ;;      Totals:         0      26       0       0       0
  3693 ;;Total ram usage:       26 bytes
  3694 ;; Hardware stack levels used:    1
  3695 ;; Hardware stack levels required when called:    2
  3696 ;; This function calls:
  3697 ;;		__Umul8_16
  3698 ;; This function is called by:
  3699 ;;		_main
  3700 ;; This function uses a non-reentrant model
  3701 ;;
  3702                           psect	text11,local,class=CODE,delta=2,merge=1,group=1
  3703                           	file	"C:\Program Files (x86)\Microchip\xc8\v2.00\pic\sources\c90\common\sprcmul.c"
  3704                           	line	8
  3705                           global __ptext11
  3706                           __ptext11:	;psect for function ___flmul
  3707  0024                     psect	text11
  3708                           	file	"C:\Program Files (x86)\Microchip\xc8\v2.00\pic\sources\c90\common\sprcmul.c"
  3709                           	line	8
  3710                           	global	__size_of___flmul
  3711                           	__size_of___flmul	equ	__end_of___flmul-___flmul
  3712  0375                     	
  3713                           ___flmul:	
  3714  0024                     ;incstack = 0
  3715                           	opt	stack 5
  3716                           ; Regs used in ___flmul: [wreg+status,2+status,0+btemp+1+pclath+cstack]
  3717                           	line	17
  3718                           	
  3719                           l2180:	
  3720  0024                     	bcf	status, 5	;RP0=0, select bank0
  3721  0024  1283               	bcf	status, 6	;RP1=0, select bank0
  3722  0025  1303               	movf	0+(___flmul@b)+03h,w
  3723  0026  0849               	andlw	080h
  3724  0027  3980               	movwf	(??___flmul+0)+0
  3725  0028  00CE               	movf	(??___flmul+0)+0,w
  3726  0029  084E               	movwf	(___flmul@sign)
  3727  002A  00D3               	line	18
  3728                           	
  3729                           l2182:	
  3730  002B                     	movf	0+(___flmul@b)+03h,w
  3731  002B  0849               	movwf	(??___flmul+0)+0
  3732  002C  00CE               	addwf	(??___flmul+0)+0,w
  3733  002D  074E               	movwf	(??___flmul+1)+0
  3734  002E  00CF               	movf	(??___flmul+1)+0,w
  3735  002F  084F               	movwf	(___flmul@bexp)
  3736  0030  00D9               	line	19
  3737                           	
  3738                           l2184:	
  3739  0031                     	btfss	0+(___flmul@b)+02h,(7)&7
  3740  0031  1FC8               	goto	u3181
  3741  0032  2834               	goto	u3180
  3742  0033  2835               u3181:
  3743  0034                     	goto	l2188
  3744  0034  2837               u3180:
  3745  0035                     	line	20
  3746                           	
  3747                           l2186:	
  3748  0035                     	bsf	(___flmul@bexp)+(0/8),(0)&7
  3749  0035  1459               	goto	l2188
  3750  0036  2837               	line	21
  3751                           	
  3752                           l617:	
  3753  0037                     	line	24
  3754                           	
  3755                           l2188:	
  3756  0037                     	movf	((___flmul@bexp)),w
  3757  0037  0859               	btfsc	status,2
  3758  0038  1903               	goto	u3191
  3759  0039  283B               	goto	u3190
  3760  003A  283C               u3191:
  3761  003B                     	goto	l2196
  3762  003B  284C               u3190:
  3763  003C                     	line	26
  3764                           	
  3765                           l2190:	
  3766  003C                     		incf	((___flmul@bexp)),w
  3767  003C  0A59               	btfss	status,2
  3768  003D  1D03               	goto	u3201
  3769  003E  2840               	goto	u3200
  3770  003F  2841               u3201:
  3771  0040                     	goto	l2194
  3772  0040  284A               u3200:
  3773  0041                     	line	28
  3774                           	
  3775                           l2192:	
  3776  0041                     	movlw	0x0
  3777  0041  3000               	movwf	(___flmul@b+3)
  3778  0042  00C9               	movlw	0x0
  3779  0043  3000               	movwf	(___flmul@b+2)
  3780  0044  00C8               	movlw	0x0
  3781  0045  3000               	movwf	(___flmul@b+1)
  3782  0046  00C7               	movlw	0x0
  3783  0047  3000               	movwf	(___flmul@b)
  3784  0048  00C6               
  3785                           	goto	l2194
  3786  0049  284A               	line	29
  3787                           	
  3788                           l619:	
  3789  004A                     	line	31
  3790                           	
  3791                           l2194:	
  3792  004A                     	bsf	(___flmul@b)+(23/8),(23)&7
  3793  004A  17C8               	line	33
  3794                           	goto	l2198
  3795  004B  2855               	line	34
  3796                           	
  3797                           l618:	
  3798  004C                     	line	36
  3799                           	
  3800                           l2196:	
  3801  004C                     	movlw	0x0
  3802  004C  3000               	movwf	(___flmul@b+3)
  3803  004D  00C9               	movlw	0x0
  3804  004E  3000               	movwf	(___flmul@b+2)
  3805  004F  00C8               	movlw	0x0
  3806  0050  3000               	movwf	(___flmul@b+1)
  3807  0051  00C7               	movlw	0x0
  3808  0052  3000               	movwf	(___flmul@b)
  3809  0053  00C6               
  3810                           	goto	l2198
  3811  0054  2855               	line	37
  3812                           	
  3813                           l620:	
  3814  0055                     	line	39
  3815                           	
  3816                           l2198:	
  3817  0055                     	movf	0+(___flmul@a)+03h,w
  3818  0055  084D               	andlw	080h
  3819  0056  3980               	movwf	(??___flmul+0)+0
  3820  0057  00CE               	movf	(??___flmul+0)+0,w
  3821  0058  084E               	xorwf	(___flmul@sign),f
  3822  0059  06D3               	line	40
  3823                           	
  3824                           l2200:	
  3825  005A                     	movf	0+(___flmul@a)+03h,w
  3826  005A  084D               	movwf	(??___flmul+0)+0
  3827  005B  00CE               	addwf	(??___flmul+0)+0,w
  3828  005C  074E               	movwf	(??___flmul+1)+0
  3829  005D  00CF               	movf	(??___flmul+1)+0,w
  3830  005E  084F               	movwf	(___flmul@aexp)
  3831  005F  00D4               	line	41
  3832                           	
  3833                           l2202:	
  3834  0060                     	btfss	0+(___flmul@a)+02h,(7)&7
  3835  0060  1FCC               	goto	u3211
  3836  0061  2863               	goto	u3210
  3837  0062  2864               u3211:
  3838  0063                     	goto	l2206
  3839  0063  2866               u3210:
  3840  0064                     	line	42
  3841                           	
  3842                           l2204:	
  3843  0064                     	bsf	(___flmul@aexp)+(0/8),(0)&7
  3844  0064  1454               	goto	l2206
  3845  0065  2866               	line	43
  3846                           	
  3847                           l621:	
  3848  0066                     	line	45
  3849                           	
  3850                           l2206:	
  3851  0066                     	movf	((___flmul@aexp)),w
  3852  0066  0854               	btfsc	status,2
  3853  0067  1903               	goto	u3221
  3854  0068  286A               	goto	u3220
  3855  0069  286B               u3221:
  3856  006A                     	goto	l2214
  3857  006A  287B               u3220:
  3858  006B                     	line	48
  3859                           	
  3860                           l2208:	
  3861  006B                     		incf	((___flmul@aexp)),w
  3862  006B  0A54               	btfss	status,2
  3863  006C  1D03               	goto	u3231
  3864  006D  286F               	goto	u3230
  3865  006E  2870               u3231:
  3866  006F                     	goto	l2212
  3867  006F  2879               u3230:
  3868  0070                     	line	50
  3869                           	
  3870                           l2210:	
  3871  0070                     	movlw	0x0
  3872  0070  3000               	movwf	(___flmul@a+3)
  3873  0071  00CD               	movlw	0x0
  3874  0072  3000               	movwf	(___flmul@a+2)
  3875  0073  00CC               	movlw	0x0
  3876  0074  3000               	movwf	(___flmul@a+1)
  3877  0075  00CB               	movlw	0x0
  3878  0076  3000               	movwf	(___flmul@a)
  3879  0077  00CA               
  3880                           	goto	l2212
  3881  0078  2879               	line	51
  3882                           	
  3883                           l623:	
  3884  0079                     	line	53
  3885                           	
  3886                           l2212:	
  3887  0079                     	bsf	(___flmul@a)+(23/8),(23)&7
  3888  0079  17CC               	line	54
  3889                           	goto	l2216
  3890  007A  2884               	line	55
  3891                           	
  3892                           l622:	
  3893  007B                     	line	57
  3894                           	
  3895                           l2214:	
  3896  007B                     	movlw	0x0
  3897  007B  3000               	movwf	(___flmul@a+3)
  3898  007C  00CD               	movlw	0x0
  3899  007D  3000               	movwf	(___flmul@a+2)
  3900  007E  00CC               	movlw	0x0
  3901  007F  3000               	movwf	(___flmul@a+1)
  3902  0080  00CB               	movlw	0x0
  3903  0081  3000               	movwf	(___flmul@a)
  3904  0082  00CA               
  3905                           	goto	l2216
  3906  0083  2884               	line	58
  3907                           	
  3908                           l624:	
  3909  0084                     	line	65
  3910                           	
  3911                           l2216:	
  3912  0084                     	movf	((___flmul@aexp)),w
  3913  0084  0854               	btfsc	status,2
  3914  0085  1903               	goto	u3241
  3915  0086  2888               	goto	u3240
  3916  0087  2889               u3241:
  3917  0088                     	goto	l2220
  3918  0088  288F               u3240:
  3919  0089                     	
  3920                           l2218:	
  3921  0089                     	movf	((___flmul@bexp)),w
  3922  0089  0859               	btfss	status,2
  3923  008A  1D03               	goto	u3251
  3924  008B  288D               	goto	u3250
  3925  008C  288E               u3251:
  3926  008D                     	goto	l2224
  3927  008D  2899               u3250:
  3928  008E                     	goto	l2220
  3929  008E  288F               	
  3930                           l627:	
  3931  008F                     	line	66
  3932                           	
  3933                           l2220:	
  3934  008F                     	movlw	0x0
  3935  008F  3000               	movwf	(?___flmul+3)
  3936  0090  00C9               	movlw	0x0
  3937  0091  3000               	movwf	(?___flmul+2)
  3938  0092  00C8               	movlw	0x0
  3939  0093  3000               	movwf	(?___flmul+1)
  3940  0094  00C7               	movlw	0x0
  3941  0095  3000               	movwf	(?___flmul)
  3942  0096  00C6               
  3943                           	goto	l628
  3944  0097  2B98               	
  3945                           l2222:	
  3946  0098                     	goto	l628
  3947  0098  2B98               	line	67
  3948                           	
  3949                           l625:	
  3950  0099                     	line	119
  3951                           	
  3952                           l2224:	
  3953  0099                     	movf	(___flmul@b),w
  3954  0099  0846               	movwf	(??___flmul+0)+0
  3955  009A  00CE               	movf	(??___flmul+0)+0,w
  3956  009B  084E               	movwf	(__Umul8_16@multiplicand)
  3957  009C  00F2               	movf	0+(___flmul@a)+02h,w
  3958  009D  084C               	fcall	__Umul8_16
  3959  009E  120A  118A  27C7  120A  118A  	movf	(1+(?__Umul8_16)),w
  3960  00A3  0873               	bcf	status, 5	;RP0=0, select bank0
  3961  00A4  1283               	bcf	status, 6	;RP1=0, select bank0
  3962  00A5  1303               	movwf	(___flmul@temp+1)
  3963  00A6  00DF               	movf	(0+(?__Umul8_16)),w
  3964  00A7  0872               	movwf	(___flmul@temp)
  3965  00A8  00DE               	line	120
  3966                           	
  3967                           l2226:	
  3968  00A9                     	movf	(___flmul@temp),w
  3969  00A9  085E               	movwf	(??___flmul+0)+0
  3970  00AA  00CE               	clrf	(??___flmul+0)+0+1
  3971  00AB  01CF               	clrf	(??___flmul+0)+0+2
  3972  00AC  01D0               	clrf	(??___flmul+0)+0+3
  3973  00AD  01D1               	movf	3+(??___flmul+0)+0,w
  3974  00AE  0851               	movwf	(___flmul@grs+3)
  3975  00AF  00D8               	movf	2+(??___flmul+0)+0,w
  3976  00B0  0850               	movwf	(___flmul@grs+2)
  3977  00B1  00D7               	movf	1+(??___flmul+0)+0,w
  3978  00B2  084F               	movwf	(___flmul@grs+1)
  3979  00B3  00D6               	movf	0+(??___flmul+0)+0,w
  3980  00B4  084E               	movwf	(___flmul@grs)
  3981  00B5  00D5               
  3982                           	line	121
  3983                           	
  3984                           l2228:	
  3985  00B6                     	movf	0+(___flmul@temp)+01h,w
  3986  00B6  085F               	movwf	(??___flmul+0)+0
  3987  00B7  00CE               	clrf	(??___flmul+0)+0+1
  3988  00B8  01CF               	clrf	(??___flmul+0)+0+2
  3989  00B9  01D0               	clrf	(??___flmul+0)+0+3
  3990  00BA  01D1               	movf	3+(??___flmul+0)+0,w
  3991  00BB  0851               	movwf	(___flmul@prod+3)
  3992  00BC  00DD               	movf	2+(??___flmul+0)+0,w
  3993  00BD  0850               	movwf	(___flmul@prod+2)
  3994  00BE  00DC               	movf	1+(??___flmul+0)+0,w
  3995  00BF  084F               	movwf	(___flmul@prod+1)
  3996  00C0  00DB               	movf	0+(??___flmul+0)+0,w
  3997  00C1  084E               	movwf	(___flmul@prod)
  3998  00C2  00DA               
  3999                           	line	122
  4000                           	movf	0+(___flmul@b)+01h,w
  4001  00C3  0847               	movwf	(??___flmul+0)+0
  4002  00C4  00CE               	movf	(??___flmul+0)+0,w
  4003  00C5  084E               	movwf	(__Umul8_16@multiplicand)
  4004  00C6  00F2               	movf	0+(___flmul@a)+01h,w
  4005  00C7  084B               	fcall	__Umul8_16
  4006  00C8  120A  118A  27C7  120A  118A  	movf	(1+(?__Umul8_16)),w
  4007  00CD  0873               	bcf	status, 5	;RP0=0, select bank0
  4008  00CE  1283               	bcf	status, 6	;RP1=0, select bank0
  4009  00CF  1303               	movwf	(___flmul@temp+1)
  4010  00D0  00DF               	movf	(0+(?__Umul8_16)),w
  4011  00D1  0872               	movwf	(___flmul@temp)
  4012  00D2  00DE               	line	123
  4013                           	
  4014                           l2230:	
  4015  00D3                     	movf	(___flmul@temp),w
  4016  00D3  085E               	movwf	(??___flmul+0)+0
  4017  00D4  00CE               	clrf	(??___flmul+0)+0+1
  4018  00D5  01CF               	clrf	(??___flmul+0)+0+2
  4019  00D6  01D0               	clrf	(??___flmul+0)+0+3
  4020  00D7  01D1               	movf	0+(??___flmul+0)+0,w
  4021  00D8  084E               	addwf	(___flmul@grs),f
  4022  00D9  07D5               	movf	1+(??___flmul+0)+0,w
  4023  00DA  084F               	clrz
  4024  00DB  1103               	skipnc
  4025  00DC  1803               	addlw	1
  4026  00DD  3E01               	skipnz
  4027  00DE  1903               	goto	u3261
  4028  00DF  28E1               	addwf	(___flmul@grs+1),f
  4029  00E0  07D6               u3261:
  4030  00E1                     	movf	2+(??___flmul+0)+0,w
  4031  00E1  0850               	clrz
  4032  00E2  1103               	skipnc
  4033  00E3  1803               	addlw	1
  4034  00E4  3E01               	skipnz
  4035  00E5  1903               	goto	u3262
  4036  00E6  28E8               	addwf	(___flmul@grs+2),f
  4037  00E7  07D7               u3262:
  4038  00E8                     	movf	3+(??___flmul+0)+0,w
  4039  00E8  0851               	clrz
  4040  00E9  1103               	skipnc
  4041  00EA  1803               	addlw	1
  4042  00EB  3E01               	skipnz
  4043  00EC  1903               	goto	u3263
  4044  00ED  28EF               	addwf	(___flmul@grs+3),f
  4045  00EE  07D8               u3263:
  4046  00EF                     
  4047                           	line	124
  4048                           	
  4049                           l2232:	
  4050  00EF                     	movf	0+(___flmul@temp)+01h,w
  4051  00EF  085F               	movwf	(??___flmul+0)+0
  4052  00F0  00CE               	clrf	(??___flmul+0)+0+1
  4053  00F1  01CF               	clrf	(??___flmul+0)+0+2
  4054  00F2  01D0               	clrf	(??___flmul+0)+0+3
  4055  00F3  01D1               	movf	0+(??___flmul+0)+0,w
  4056  00F4  084E               	addwf	(___flmul@prod),f
  4057  00F5  07DA               	movf	1+(??___flmul+0)+0,w
  4058  00F6  084F               	clrz
  4059  00F7  1103               	skipnc
  4060  00F8  1803               	addlw	1
  4061  00F9  3E01               	skipnz
  4062  00FA  1903               	goto	u3271
  4063  00FB  28FD               	addwf	(___flmul@prod+1),f
  4064  00FC  07DB               u3271:
  4065  00FD                     	movf	2+(??___flmul+0)+0,w
  4066  00FD  0850               	clrz
  4067  00FE  1103               	skipnc
  4068  00FF  1803               	addlw	1
  4069  0100  3E01               	skipnz
  4070  0101  1903               	goto	u3272
  4071  0102  2904               	addwf	(___flmul@prod+2),f
  4072  0103  07DC               u3272:
  4073  0104                     	movf	3+(??___flmul+0)+0,w
  4074  0104  0851               	clrz
  4075  0105  1103               	skipnc
  4076  0106  1803               	addlw	1
  4077  0107  3E01               	skipnz
  4078  0108  1903               	goto	u3273
  4079  0109  290B               	addwf	(___flmul@prod+3),f
  4080  010A  07DD               u3273:
  4081  010B                     
  4082                           	line	125
  4083                           	movf	0+(___flmul@b)+02h,w
  4084  010B  0848               	movwf	(??___flmul+0)+0
  4085  010C  00CE               	movf	(??___flmul+0)+0,w
  4086  010D  084E               	movwf	(__Umul8_16@multiplicand)
  4087  010E  00F2               	movf	(___flmul@a),w
  4088  010F  084A               	fcall	__Umul8_16
  4089  0110  120A  118A  27C7  120A  118A  	movf	(1+(?__Umul8_16)),w
  4090  0115  0873               	bcf	status, 5	;RP0=0, select bank0
  4091  0116  1283               	bcf	status, 6	;RP1=0, select bank0
  4092  0117  1303               	movwf	(___flmul@temp+1)
  4093  0118  00DF               	movf	(0+(?__Umul8_16)),w
  4094  0119  0872               	movwf	(___flmul@temp)
  4095  011A  00DE               	line	126
  4096                           	
  4097                           l2234:	
  4098  011B                     	movf	(___flmul@temp),w
  4099  011B  085E               	movwf	(??___flmul+0)+0
  4100  011C  00CE               	clrf	(??___flmul+0)+0+1
  4101  011D  01CF               	clrf	(??___flmul+0)+0+2
  4102  011E  01D0               	clrf	(??___flmul+0)+0+3
  4103  011F  01D1               	movf	0+(??___flmul+0)+0,w
  4104  0120  084E               	addwf	(___flmul@grs),f
  4105  0121  07D5               	movf	1+(??___flmul+0)+0,w
  4106  0122  084F               	clrz
  4107  0123  1103               	skipnc
  4108  0124  1803               	addlw	1
  4109  0125  3E01               	skipnz
  4110  0126  1903               	goto	u3281
  4111  0127  2929               	addwf	(___flmul@grs+1),f
  4112  0128  07D6               u3281:
  4113  0129                     	movf	2+(??___flmul+0)+0,w
  4114  0129  0850               	clrz
  4115  012A  1103               	skipnc
  4116  012B  1803               	addlw	1
  4117  012C  3E01               	skipnz
  4118  012D  1903               	goto	u3282
  4119  012E  2930               	addwf	(___flmul@grs+2),f
  4120  012F  07D7               u3282:
  4121  0130                     	movf	3+(??___flmul+0)+0,w
  4122  0130  0851               	clrz
  4123  0131  1103               	skipnc
  4124  0132  1803               	addlw	1
  4125  0133  3E01               	skipnz
  4126  0134  1903               	goto	u3283
  4127  0135  2937               	addwf	(___flmul@grs+3),f
  4128  0136  07D8               u3283:
  4129  0137                     
  4130                           	line	127
  4131                           	
  4132                           l2236:	
  4133  0137                     	movf	0+(___flmul@temp)+01h,w
  4134  0137  085F               	movwf	(??___flmul+0)+0
  4135  0138  00CE               	clrf	(??___flmul+0)+0+1
  4136  0139  01CF               	clrf	(??___flmul+0)+0+2
  4137  013A  01D0               	clrf	(??___flmul+0)+0+3
  4138  013B  01D1               	movf	0+(??___flmul+0)+0,w
  4139  013C  084E               	addwf	(___flmul@prod),f
  4140  013D  07DA               	movf	1+(??___flmul+0)+0,w
  4141  013E  084F               	clrz
  4142  013F  1103               	skipnc
  4143  0140  1803               	addlw	1
  4144  0141  3E01               	skipnz
  4145  0142  1903               	goto	u3291
  4146  0143  2945               	addwf	(___flmul@prod+1),f
  4147  0144  07DB               u3291:
  4148  0145                     	movf	2+(??___flmul+0)+0,w
  4149  0145  0850               	clrz
  4150  0146  1103               	skipnc
  4151  0147  1803               	addlw	1
  4152  0148  3E01               	skipnz
  4153  0149  1903               	goto	u3292
  4154  014A  294C               	addwf	(___flmul@prod+2),f
  4155  014B  07DC               u3292:
  4156  014C                     	movf	3+(??___flmul+0)+0,w
  4157  014C  0851               	clrz
  4158  014D  1103               	skipnc
  4159  014E  1803               	addlw	1
  4160  014F  3E01               	skipnz
  4161  0150  1903               	goto	u3293
  4162  0151  2953               	addwf	(___flmul@prod+3),f
  4163  0152  07DD               u3293:
  4164  0153                     
  4165                           	line	128
  4166                           	
  4167                           l2238:	
  4168  0153                     	movlw	08h
  4169  0153  3008               	movwf	(??___flmul+0)+0
  4170  0154  00CE               u3305:
  4171  0155                     	clrc
  4172  0155  1003               	rlf	(___flmul@grs),f
  4173  0156  0DD5               	rlf	(___flmul@grs+1),f
  4174  0157  0DD6               	rlf	(___flmul@grs+2),f
  4175  0158  0DD7               	rlf	(___flmul@grs+3),f
  4176  0159  0DD8               	decfsz	(??___flmul+0)+0
  4177  015A  0BCE               	goto	u3305
  4178  015B  2955               	line	129
  4179                           	
  4180                           l2240:	
  4181  015C                     	movf	0+(___flmul@b)+01h,w
  4182  015C  0847               	movwf	(??___flmul+0)+0
  4183  015D  00CE               	movf	(??___flmul+0)+0,w
  4184  015E  084E               	movwf	(__Umul8_16@multiplicand)
  4185  015F  00F2               	movf	(___flmul@a),w
  4186  0160  084A               	fcall	__Umul8_16
  4187  0161  120A  118A  27C7  120A  118A  	movf	(1+(?__Umul8_16)),w
  4188  0166  0873               	bcf	status, 5	;RP0=0, select bank0
  4189  0167  1283               	bcf	status, 6	;RP1=0, select bank0
  4190  0168  1303               	movwf	(___flmul@temp+1)
  4191  0169  00DF               	movf	(0+(?__Umul8_16)),w
  4192  016A  0872               	movwf	(___flmul@temp)
  4193  016B  00DE               	line	130
  4194                           	
  4195                           l2242:	
  4196  016C                     	movf	(___flmul@temp),w
  4197  016C  085E               	movwf	((??___flmul+0)+0)
  4198  016D  00CE               	movf	(___flmul@temp+1),w
  4199  016E  085F               	movwf	((??___flmul+0)+0+1)
  4200  016F  00CF               	clrf	((??___flmul+0)+0+2)
  4201  0170  01D0               	clrf	((??___flmul+0)+0+3)
  4202  0171  01D1               	movf	0+(??___flmul+0)+0,w
  4203  0172  084E               	addwf	(___flmul@grs),f
  4204  0173  07D5               	movf	1+(??___flmul+0)+0,w
  4205  0174  084F               	clrz
  4206  0175  1103               	skipnc
  4207  0176  1803               	addlw	1
  4208  0177  3E01               	skipnz
  4209  0178  1903               	goto	u3311
  4210  0179  297B               	addwf	(___flmul@grs+1),f
  4211  017A  07D6               u3311:
  4212  017B                     	movf	2+(??___flmul+0)+0,w
  4213  017B  0850               	clrz
  4214  017C  1103               	skipnc
  4215  017D  1803               	addlw	1
  4216  017E  3E01               	skipnz
  4217  017F  1903               	goto	u3312
  4218  0180  2982               	addwf	(___flmul@grs+2),f
  4219  0181  07D7               u3312:
  4220  0182                     	movf	3+(??___flmul+0)+0,w
  4221  0182  0851               	clrz
  4222  0183  1103               	skipnc
  4223  0184  1803               	addlw	1
  4224  0185  3E01               	skipnz
  4225  0186  1903               	goto	u3313
  4226  0187  2989               	addwf	(___flmul@grs+3),f
  4227  0188  07D8               u3313:
  4228  0189                     
  4229                           	line	131
  4230                           	
  4231                           l2244:	
  4232  0189                     	movf	(___flmul@b),w
  4233  0189  0846               	movwf	(??___flmul+0)+0
  4234  018A  00CE               	movf	(??___flmul+0)+0,w
  4235  018B  084E               	movwf	(__Umul8_16@multiplicand)
  4236  018C  00F2               	movf	0+(___flmul@a)+01h,w
  4237  018D  084B               	fcall	__Umul8_16
  4238  018E  120A  118A  27C7  120A  118A  	movf	(1+(?__Umul8_16)),w
  4239  0193  0873               	bcf	status, 5	;RP0=0, select bank0
  4240  0194  1283               	bcf	status, 6	;RP1=0, select bank0
  4241  0195  1303               	movwf	(___flmul@temp+1)
  4242  0196  00DF               	movf	(0+(?__Umul8_16)),w
  4243  0197  0872               	movwf	(___flmul@temp)
  4244  0198  00DE               	line	132
  4245                           	
  4246                           l2246:	
  4247  0199                     	movf	(___flmul@temp),w
  4248  0199  085E               	movwf	((??___flmul+0)+0)
  4249  019A  00CE               	movf	(___flmul@temp+1),w
  4250  019B  085F               	movwf	((??___flmul+0)+0+1)
  4251  019C  00CF               	clrf	((??___flmul+0)+0+2)
  4252  019D  01D0               	clrf	((??___flmul+0)+0+3)
  4253  019E  01D1               	movf	0+(??___flmul+0)+0,w
  4254  019F  084E               	addwf	(___flmul@grs),f
  4255  01A0  07D5               	movf	1+(??___flmul+0)+0,w
  4256  01A1  084F               	clrz
  4257  01A2  1103               	skipnc
  4258  01A3  1803               	addlw	1
  4259  01A4  3E01               	skipnz
  4260  01A5  1903               	goto	u3321
  4261  01A6  29A8               	addwf	(___flmul@grs+1),f
  4262  01A7  07D6               u3321:
  4263  01A8                     	movf	2+(??___flmul+0)+0,w
  4264  01A8  0850               	clrz
  4265  01A9  1103               	skipnc
  4266  01AA  1803               	addlw	1
  4267  01AB  3E01               	skipnz
  4268  01AC  1903               	goto	u3322
  4269  01AD  29AF               	addwf	(___flmul@grs+2),f
  4270  01AE  07D7               u3322:
  4271  01AF                     	movf	3+(??___flmul+0)+0,w
  4272  01AF  0851               	clrz
  4273  01B0  1103               	skipnc
  4274  01B1  1803               	addlw	1
  4275  01B2  3E01               	skipnz
  4276  01B3  1903               	goto	u3323
  4277  01B4  29B6               	addwf	(___flmul@grs+3),f
  4278  01B5  07D8               u3323:
  4279  01B6                     
  4280                           	line	133
  4281                           	
  4282                           l2248:	
  4283  01B6                     	movlw	08h
  4284  01B6  3008               	movwf	(??___flmul+0)+0
  4285  01B7  00CE               u3335:
  4286  01B8                     	clrc
  4287  01B8  1003               	rlf	(___flmul@grs),f
  4288  01B9  0DD5               	rlf	(___flmul@grs+1),f
  4289  01BA  0DD6               	rlf	(___flmul@grs+2),f
  4290  01BB  0DD7               	rlf	(___flmul@grs+3),f
  4291  01BC  0DD8               	decfsz	(??___flmul+0)+0
  4292  01BD  0BCE               	goto	u3335
  4293  01BE  29B8               	line	134
  4294                           	movf	(___flmul@b),w
  4295  01BF  0846               	movwf	(??___flmul+0)+0
  4296  01C0  00CE               	movf	(??___flmul+0)+0,w
  4297  01C1  084E               	movwf	(__Umul8_16@multiplicand)
  4298  01C2  00F2               	movf	(___flmul@a),w
  4299  01C3  084A               	fcall	__Umul8_16
  4300  01C4  120A  118A  27C7  120A  118A  	movf	(1+(?__Umul8_16)),w
  4301  01C9  0873               	bcf	status, 5	;RP0=0, select bank0
  4302  01CA  1283               	bcf	status, 6	;RP1=0, select bank0
  4303  01CB  1303               	movwf	(___flmul@temp+1)
  4304  01CC  00DF               	movf	(0+(?__Umul8_16)),w
  4305  01CD  0872               	movwf	(___flmul@temp)
  4306  01CE  00DE               	line	135
  4307                           	
  4308                           l2250:	
  4309  01CF                     	movf	(___flmul@temp),w
  4310  01CF  085E               	movwf	((??___flmul+0)+0)
  4311  01D0  00CE               	movf	(___flmul@temp+1),w
  4312  01D1  085F               	movwf	((??___flmul+0)+0+1)
  4313  01D2  00CF               	clrf	((??___flmul+0)+0+2)
  4314  01D3  01D0               	clrf	((??___flmul+0)+0+3)
  4315  01D4  01D1               	movf	0+(??___flmul+0)+0,w
  4316  01D5  084E               	addwf	(___flmul@grs),f
  4317  01D6  07D5               	movf	1+(??___flmul+0)+0,w
  4318  01D7  084F               	clrz
  4319  01D8  1103               	skipnc
  4320  01D9  1803               	addlw	1
  4321  01DA  3E01               	skipnz
  4322  01DB  1903               	goto	u3341
  4323  01DC  29DE               	addwf	(___flmul@grs+1),f
  4324  01DD  07D6               u3341:
  4325  01DE                     	movf	2+(??___flmul+0)+0,w
  4326  01DE  0850               	clrz
  4327  01DF  1103               	skipnc
  4328  01E0  1803               	addlw	1
  4329  01E1  3E01               	skipnz
  4330  01E2  1903               	goto	u3342
  4331  01E3  29E5               	addwf	(___flmul@grs+2),f
  4332  01E4  07D7               u3342:
  4333  01E5                     	movf	3+(??___flmul+0)+0,w
  4334  01E5  0851               	clrz
  4335  01E6  1103               	skipnc
  4336  01E7  1803               	addlw	1
  4337  01E8  3E01               	skipnz
  4338  01E9  1903               	goto	u3343
  4339  01EA  29EC               	addwf	(___flmul@grs+3),f
  4340  01EB  07D8               u3343:
  4341  01EC                     
  4342                           	line	136
  4343                           	
  4344                           l2252:	
  4345  01EC                     	movf	0+(___flmul@b)+01h,w
  4346  01EC  0847               	movwf	(??___flmul+0)+0
  4347  01ED  00CE               	movf	(??___flmul+0)+0,w
  4348  01EE  084E               	movwf	(__Umul8_16@multiplicand)
  4349  01EF  00F2               	movf	0+(___flmul@a)+02h,w
  4350  01F0  084C               	fcall	__Umul8_16
  4351  01F1  120A  118A  27C7  120A  118A  	movf	(1+(?__Umul8_16)),w
  4352  01F6  0873               	bcf	status, 5	;RP0=0, select bank0
  4353  01F7  1283               	bcf	status, 6	;RP1=0, select bank0
  4354  01F8  1303               	movwf	(___flmul@temp+1)
  4355  01F9  00DF               	movf	(0+(?__Umul8_16)),w
  4356  01FA  0872               	movwf	(___flmul@temp)
  4357  01FB  00DE               	line	137
  4358                           	movf	(___flmul@temp),w
  4359  01FC  085E               	movwf	((??___flmul+0)+0)
  4360  01FD  00CE               	movf	(___flmul@temp+1),w
  4361  01FE  085F               	movwf	((??___flmul+0)+0+1)
  4362  01FF  00CF               	clrf	((??___flmul+0)+0+2)
  4363  0200  01D0               	clrf	((??___flmul+0)+0+3)
  4364  0201  01D1               	movf	0+(??___flmul+0)+0,w
  4365  0202  084E               	addwf	(___flmul@prod),f
  4366  0203  07DA               	movf	1+(??___flmul+0)+0,w
  4367  0204  084F               	clrz
  4368  0205  1103               	skipnc
  4369  0206  1803               	addlw	1
  4370  0207  3E01               	skipnz
  4371  0208  1903               	goto	u3351
  4372  0209  2A0B               	addwf	(___flmul@prod+1),f
  4373  020A  07DB               u3351:
  4374  020B                     	movf	2+(??___flmul+0)+0,w
  4375  020B  0850               	clrz
  4376  020C  1103               	skipnc
  4377  020D  1803               	addlw	1
  4378  020E  3E01               	skipnz
  4379  020F  1903               	goto	u3352
  4380  0210  2A12               	addwf	(___flmul@prod+2),f
  4381  0211  07DC               u3352:
  4382  0212                     	movf	3+(??___flmul+0)+0,w
  4383  0212  0851               	clrz
  4384  0213  1103               	skipnc
  4385  0214  1803               	addlw	1
  4386  0215  3E01               	skipnz
  4387  0216  1903               	goto	u3353
  4388  0217  2A19               	addwf	(___flmul@prod+3),f
  4389  0218  07DD               u3353:
  4390  0219                     
  4391                           	line	138
  4392                           	
  4393                           l2254:	
  4394  0219                     	movf	0+(___flmul@b)+02h,w
  4395  0219  0848               	movwf	(??___flmul+0)+0
  4396  021A  00CE               	movf	(??___flmul+0)+0,w
  4397  021B  084E               	movwf	(__Umul8_16@multiplicand)
  4398  021C  00F2               	movf	0+(___flmul@a)+01h,w
  4399  021D  084B               	fcall	__Umul8_16
  4400  021E  120A  118A  27C7  120A  118A  	movf	(1+(?__Umul8_16)),w
  4401  0223  0873               	bcf	status, 5	;RP0=0, select bank0
  4402  0224  1283               	bcf	status, 6	;RP1=0, select bank0
  4403  0225  1303               	movwf	(___flmul@temp+1)
  4404  0226  00DF               	movf	(0+(?__Umul8_16)),w
  4405  0227  0872               	movwf	(___flmul@temp)
  4406  0228  00DE               	line	139
  4407                           	
  4408                           l2256:	
  4409  0229                     	movf	(___flmul@temp),w
  4410  0229  085E               	movwf	((??___flmul+0)+0)
  4411  022A  00CE               	movf	(___flmul@temp+1),w
  4412  022B  085F               	movwf	((??___flmul+0)+0+1)
  4413  022C  00CF               	clrf	((??___flmul+0)+0+2)
  4414  022D  01D0               	clrf	((??___flmul+0)+0+3)
  4415  022E  01D1               	movf	0+(??___flmul+0)+0,w
  4416  022F  084E               	addwf	(___flmul@prod),f
  4417  0230  07DA               	movf	1+(??___flmul+0)+0,w
  4418  0231  084F               	clrz
  4419  0232  1103               	skipnc
  4420  0233  1803               	addlw	1
  4421  0234  3E01               	skipnz
  4422  0235  1903               	goto	u3361
  4423  0236  2A38               	addwf	(___flmul@prod+1),f
  4424  0237  07DB               u3361:
  4425  0238                     	movf	2+(??___flmul+0)+0,w
  4426  0238  0850               	clrz
  4427  0239  1103               	skipnc
  4428  023A  1803               	addlw	1
  4429  023B  3E01               	skipnz
  4430  023C  1903               	goto	u3362
  4431  023D  2A3F               	addwf	(___flmul@prod+2),f
  4432  023E  07DC               u3362:
  4433  023F                     	movf	3+(??___flmul+0)+0,w
  4434  023F  0851               	clrz
  4435  0240  1103               	skipnc
  4436  0241  1803               	addlw	1
  4437  0242  3E01               	skipnz
  4438  0243  1903               	goto	u3363
  4439  0244  2A46               	addwf	(___flmul@prod+3),f
  4440  0245  07DD               u3363:
  4441  0246                     
  4442                           	line	140
  4443                           	movf	0+(___flmul@b)+02h,w
  4444  0246  0848               	movwf	(??___flmul+0)+0
  4445  0247  00CE               	movf	(??___flmul+0)+0,w
  4446  0248  084E               	movwf	(__Umul8_16@multiplicand)
  4447  0249  00F2               	movf	0+(___flmul@a)+02h,w
  4448  024A  084C               	fcall	__Umul8_16
  4449  024B  120A  118A  27C7  120A  118A  	movf	(1+(?__Umul8_16)),w
  4450  0250  0873               	bcf	status, 5	;RP0=0, select bank0
  4451  0251  1283               	bcf	status, 6	;RP1=0, select bank0
  4452  0252  1303               	movwf	(___flmul@temp+1)
  4453  0253  00DF               	movf	(0+(?__Umul8_16)),w
  4454  0254  0872               	movwf	(___flmul@temp)
  4455  0255  00DE               	line	141
  4456                           	
  4457                           l2258:	
  4458  0256                     	movf	(___flmul@temp),w
  4459  0256  085E               	movwf	((??___flmul+0)+0)
  4460  0257  00CE               	movf	(___flmul@temp+1),w
  4461  0258  085F               	movwf	((??___flmul+0)+0+1)
  4462  0259  00CF               	clrf	((??___flmul+0)+0+2)
  4463  025A  01D0               	clrf	((??___flmul+0)+0+3)
  4464  025B  01D1               	movlw	08h
  4465  025C  3008               u3375:
  4466  025D                     	clrc
  4467  025D  1003               	rlf	(??___flmul+0)+0,f
  4468  025E  0DCE               	rlf	(??___flmul+0)+1,f
  4469  025F  0DCF               	rlf	(??___flmul+0)+2,f
  4470  0260  0DD0               	rlf	(??___flmul+0)+3,f
  4471  0261  0DD1               u3370:
  4472  0262                     	addlw	-1
  4473  0262  3EFF               	skipz
  4474  0263  1D03               	goto	u3375
  4475  0264  2A5D               	movf	0+(??___flmul+0)+0,w
  4476  0265  084E               	addwf	(___flmul@prod),f
  4477  0266  07DA               	movf	1+(??___flmul+0)+0,w
  4478  0267  084F               	clrz
  4479  0268  1103               	skipnc
  4480  0269  1803               	addlw	1
  4481  026A  3E01               	skipnz
  4482  026B  1903               	goto	u3381
  4483  026C  2A6E               	addwf	(___flmul@prod+1),f
  4484  026D  07DB               u3381:
  4485  026E                     	movf	2+(??___flmul+0)+0,w
  4486  026E  0850               	clrz
  4487  026F  1103               	skipnc
  4488  0270  1803               	addlw	1
  4489  0271  3E01               	skipnz
  4490  0272  1903               	goto	u3382
  4491  0273  2A75               	addwf	(___flmul@prod+2),f
  4492  0274  07DC               u3382:
  4493  0275                     	movf	3+(??___flmul+0)+0,w
  4494  0275  0851               	clrz
  4495  0276  1103               	skipnc
  4496  0277  1803               	addlw	1
  4497  0278  3E01               	skipnz
  4498  0279  1903               	goto	u3383
  4499  027A  2A7C               	addwf	(___flmul@prod+3),f
  4500  027B  07DD               u3383:
  4501  027C                     
  4502                           	line	145
  4503                           	
  4504                           l2260:	
  4505  027C                     	movf	(___flmul@grs),w
  4506  027C  0855               	movwf	(??___flmul+0)+0
  4507  027D  00CE               	movf	(___flmul@grs+1),w
  4508  027E  0856               	movwf	((??___flmul+0)+0+1)
  4509  027F  00CF               	movf	(___flmul@grs+2),w
  4510  0280  0857               	movwf	((??___flmul+0)+0+2)
  4511  0281  00D0               	movf	(___flmul@grs+3),w
  4512  0282  0858               	movwf	((??___flmul+0)+0+3)
  4513  0283  00D1               	movlw	018h
  4514  0284  3018               u3395:
  4515  0285                     	clrc
  4516  0285  1003               	rrf	(??___flmul+0)+3,f
  4517  0286  0CD1               	rrf	(??___flmul+0)+2,f
  4518  0287  0CD0               	rrf	(??___flmul+0)+1,f
  4519  0288  0CCF               	rrf	(??___flmul+0)+0,f
  4520  0289  0CCE               u3390:
  4521  028A                     	addlw	-1
  4522  028A  3EFF               	skipz
  4523  028B  1D03               	goto	u3395
  4524  028C  2A85               	movf	0+(??___flmul+0)+0,w
  4525  028D  084E               	addwf	(___flmul@prod),f
  4526  028E  07DA               	movf	1+(??___flmul+0)+0,w
  4527  028F  084F               	clrz
  4528  0290  1103               	skipnc
  4529  0291  1803               	addlw	1
  4530  0292  3E01               	skipnz
  4531  0293  1903               	goto	u3401
  4532  0294  2A96               	addwf	(___flmul@prod+1),f
  4533  0295  07DB               u3401:
  4534  0296                     	movf	2+(??___flmul+0)+0,w
  4535  0296  0850               	clrz
  4536  0297  1103               	skipnc
  4537  0298  1803               	addlw	1
  4538  0299  3E01               	skipnz
  4539  029A  1903               	goto	u3402
  4540  029B  2A9D               	addwf	(___flmul@prod+2),f
  4541  029C  07DC               u3402:
  4542  029D                     	movf	3+(??___flmul+0)+0,w
  4543  029D  0851               	clrz
  4544  029E  1103               	skipnc
  4545  029F  1803               	addlw	1
  4546  02A0  3E01               	skipnz
  4547  02A1  1903               	goto	u3403
  4548  02A2  2AA4               	addwf	(___flmul@prod+3),f
  4549  02A3  07DD               u3403:
  4550  02A4                     
  4551                           	line	146
  4552                           	
  4553                           l2262:	
  4554  02A4                     	movlw	08h
  4555  02A4  3008               	movwf	(??___flmul+0)+0
  4556  02A5  00CE               u3415:
  4557  02A6                     	clrc
  4558  02A6  1003               	rlf	(___flmul@grs),f
  4559  02A7  0DD5               	rlf	(___flmul@grs+1),f
  4560  02A8  0DD6               	rlf	(___flmul@grs+2),f
  4561  02A9  0DD7               	rlf	(___flmul@grs+3),f
  4562  02AA  0DD8               	decfsz	(??___flmul+0)+0
  4563  02AB  0BCE               	goto	u3415
  4564  02AC  2AA6               	line	149
  4565                           	
  4566                           l2264:	
  4567  02AD                     	movf	(___flmul@bexp),w
  4568  02AD  0859               	addwf	(___flmul@aexp),w
  4569  02AE  0754               	movwf	(??___flmul+0)+0
  4570  02AF  00CE               	clrf	(??___flmul+0)+0+1
  4571  02B0  01CF               	rlf	1+(??___flmul+0)+0,f
  4572  02B1  0DCF               	
  4573                           	movf	0+(??___flmul+0)+0,w
  4574  02B2  084E               	addlw	low(-126)
  4575  02B3  3E82               	movwf	(___flmul@temp)
  4576  02B4  00DE               	movf	1+(??___flmul+0)+0,w
  4577  02B5  084F               	skipnc
  4578  02B6  1803               	addlw	1
  4579  02B7  3E01               	addlw	high(-126)
  4580  02B8  3EFF               	movwf	1+(___flmul@temp)
  4581  02B9  00DF               	line	152
  4582                           	goto	l2276
  4583  02BA  2ADA               	
  4584                           l630:	
  4585  02BB                     	line	153
  4586                           	
  4587                           l2266:	
  4588  02BB                     	movlw	01h
  4589  02BB  3001               	movwf	(??___flmul+0)+0
  4590  02BC  00CE               u3425:
  4591  02BD                     	clrc
  4592  02BD  1003               	rlf	(___flmul@prod),f
  4593  02BE  0DDA               	rlf	(___flmul@prod+1),f
  4594  02BF  0DDB               	rlf	(___flmul@prod+2),f
  4595  02C0  0DDC               	rlf	(___flmul@prod+3),f
  4596  02C1  0DDD               	decfsz	(??___flmul+0)+0
  4597  02C2  0BCE               	goto	u3425
  4598  02C3  2ABD               	line	154
  4599                           	
  4600                           l2268:	
  4601  02C4                     	btfss	(___flmul@grs+3),(31)&7
  4602  02C4  1FD8               	goto	u3431
  4603  02C5  2AC7               	goto	u3430
  4604  02C6  2AC8               u3431:
  4605  02C7                     	goto	l2272
  4606  02C7  2ACA               u3430:
  4607  02C8                     	line	155
  4608                           	
  4609                           l2270:	
  4610  02C8                     	bsf	(___flmul@prod)+(0/8),(0)&7
  4611  02C8  145A               	goto	l2272
  4612  02C9  2ACA               	line	156
  4613                           	
  4614                           l631:	
  4615  02CA                     	line	157
  4616                           	
  4617                           l2272:	
  4618  02CA                     	movlw	01h
  4619  02CA  3001               	movwf	(??___flmul+0)+0
  4620  02CB  00CE               u3445:
  4621  02CC                     	clrc
  4622  02CC  1003               	rlf	(___flmul@grs),f
  4623  02CD  0DD5               	rlf	(___flmul@grs+1),f
  4624  02CE  0DD6               	rlf	(___flmul@grs+2),f
  4625  02CF  0DD7               	rlf	(___flmul@grs+3),f
  4626  02D0  0DD8               	decfsz	(??___flmul+0)+0
  4627  02D1  0BCE               	goto	u3445
  4628  02D2  2ACC               	line	158
  4629                           	
  4630                           l2274:	
  4631  02D3                     	movlw	0FFh
  4632  02D3  30FF               	addwf	(___flmul@temp),f
  4633  02D4  07DE               	skipnc
  4634  02D5  1803               	incf	(___flmul@temp+1),f
  4635  02D6  0ADF               	movlw	0FFh
  4636  02D7  30FF               	addwf	(___flmul@temp+1),f
  4637  02D8  07DF               	goto	l2276
  4638  02D9  2ADA               	line	159
  4639                           	
  4640                           l629:	
  4641  02DA                     	line	152
  4642                           	
  4643                           l2276:	
  4644  02DA                     	btfss	(___flmul@prod+2),(23)&7
  4645  02DA  1FDC               	goto	u3451
  4646  02DB  2ADD               	goto	u3450
  4647  02DC  2ADE               u3451:
  4648  02DD                     	goto	l2266
  4649  02DD  2ABB               u3450:
  4650  02DE                     	goto	l2278
  4651  02DE  2ADF               	
  4652                           l632:	
  4653  02DF                     	line	163
  4654                           	
  4655                           l2278:	
  4656  02DF                     	clrf	(___flmul@aexp)
  4657  02DF  01D4               	line	164
  4658                           	
  4659                           l2280:	
  4660  02E0                     	btfss	(___flmul@grs+3),(31)&7
  4661  02E0  1FD8               	goto	u3461
  4662  02E1  2AE3               	goto	u3460
  4663  02E2  2AE4               u3461:
  4664  02E3                     	goto	l2288
  4665  02E3  2B04               u3460:
  4666  02E4                     	line	165
  4667                           	
  4668                           l2282:	
  4669  02E4                     	movlw	0FFh
  4670  02E4  30FF               	andwf	(___flmul@grs),w
  4671  02E5  0555               	movwf	(??___flmul+0)+0
  4672  02E6  00CE               	movlw	0FFh
  4673  02E7  30FF               	andwf	(___flmul@grs+1),w
  4674  02E8  0556               	movwf	((??___flmul+0)+0+1)
  4675  02E9  00CF               	movlw	0FFh
  4676  02EA  30FF               	andwf	(___flmul@grs+2),w
  4677  02EB  0557               	movwf	((??___flmul+0)+0+2)
  4678  02EC  00D0               	movlw	07Fh
  4679  02ED  307F               	andwf	(___flmul@grs+3),w
  4680  02EE  0558               	movwf	((??___flmul+0)+0+3)
  4681  02EF  00D1               	movf	3+(??___flmul+0)+0,w
  4682  02F0  0851               	iorwf	2+(??___flmul+0)+0,w
  4683  02F1  0450               	iorwf	1+(??___flmul+0)+0,w
  4684  02F2  044F               	iorwf	0+(??___flmul+0)+0,w
  4685  02F3  044E               	skipnz
  4686  02F4  1903               	goto	u3471
  4687  02F5  2AF7               	goto	u3470
  4688  02F6  2AF8               u3471:
  4689  02F7                     	goto	l634
  4690  02F7  2AFB               u3470:
  4691  02F8                     	line	166
  4692                           	
  4693                           l2284:	
  4694  02F8                     	clrf	(___flmul@aexp)
  4695  02F8  01D4               	incf	(___flmul@aexp),f
  4696  02F9  0AD4               	line	167
  4697                           	goto	l2288
  4698  02FA  2B04               	line	168
  4699                           	
  4700                           l634:	
  4701  02FB                     	line	169
  4702                           	btfss	(___flmul@prod),(0)&7
  4703  02FB  1C5A               	goto	u3481
  4704  02FC  2AFE               	goto	u3480
  4705  02FD  2AFF               u3481:
  4706  02FE                     	goto	l2288
  4707  02FE  2B04               u3480:
  4708  02FF                     	line	170
  4709                           	
  4710                           l2286:	
  4711  02FF                     	clrf	(___flmul@aexp)
  4712  02FF  01D4               	incf	(___flmul@aexp),f
  4713  0300  0AD4               	goto	l2288
  4714  0301  2B04               	line	171
  4715                           	
  4716                           l636:	
  4717  0302                     	goto	l2288
  4718  0302  2B04               	line	172
  4719                           	
  4720                           l635:	
  4721  0303                     	goto	l2288
  4722  0303  2B04               	line	173
  4723                           	
  4724                           l633:	
  4725  0304                     	line	174
  4726                           	
  4727                           l2288:	
  4728  0304                     	movf	((___flmul@aexp)),w
  4729  0304  0854               	btfsc	status,2
  4730  0305  1903               	goto	u3491
  4731  0306  2B08               	goto	u3490
  4732  0307  2B09               u3491:
  4733  0308                     	goto	l2298
  4734  0308  2B3C               u3490:
  4735  0309                     	line	175
  4736                           	
  4737                           l2290:	
  4738  0309                     	movlw	01h
  4739  0309  3001               	addwf	(___flmul@prod),f
  4740  030A  07DA               	movlw	0
  4741  030B  3000               	skipnc
  4742  030C  1803               movlw 1
  4743  030D  3001               	addwf	(___flmul@prod+1),f
  4744  030E  07DB               	movlw	0
  4745  030F  3000               	skipnc
  4746  0310  1803               movlw 1
  4747  0311  3001               	addwf	(___flmul@prod+2),f
  4748  0312  07DC               	movlw	0
  4749  0313  3000               	skipnc
  4750  0314  1803               movlw 1
  4751  0315  3001               	addwf	(___flmul@prod+3),f
  4752  0316  07DD               	line	176
  4753                           	
  4754                           l2292:	
  4755  0317                     	btfss	(___flmul@prod+3),(24)&7
  4756  0317  1C5D               	goto	u3501
  4757  0318  2B1A               	goto	u3500
  4758  0319  2B1B               u3501:
  4759  031A                     	goto	l2298
  4760  031A  2B3C               u3500:
  4761  031B                     	line	177
  4762                           	
  4763                           l2294:	
  4764  031B                     	movf	(___flmul@prod),w
  4765  031B  085A               	movwf	(??___flmul+0)+0
  4766  031C  00CE               	movf	(___flmul@prod+1),w
  4767  031D  085B               	movwf	((??___flmul+0)+0+1)
  4768  031E  00CF               	movf	(___flmul@prod+2),w
  4769  031F  085C               	movwf	((??___flmul+0)+0+2)
  4770  0320  00D0               	movf	(___flmul@prod+3),w
  4771  0321  085D               	movwf	((??___flmul+0)+0+3)
  4772  0322  00D1               	movlw	01h
  4773  0323  3001               	movwf	(??___flmul+4)+0
  4774  0324  00D2               u3515:
  4775  0325                     	rlf	(??___flmul+0)+3,w
  4776  0325  0D51               	rrf	(??___flmul+0)+3,f
  4777  0326  0CD1               	rrf	(??___flmul+0)+2,f
  4778  0327  0CD0               	rrf	(??___flmul+0)+1,f
  4779  0328  0CCF               	rrf	(??___flmul+0)+0,f
  4780  0329  0CCE               u3510:
  4781  032A                     	decfsz	(??___flmul+4)+0,f
  4782  032A  0BD2               	goto	u3515
  4783  032B  2B25               	movf	3+(??___flmul+0)+0,w
  4784  032C  0851               	movwf	(___flmul@prod+3)
  4785  032D  00DD               	movf	2+(??___flmul+0)+0,w
  4786  032E  0850               	movwf	(___flmul@prod+2)
  4787  032F  00DC               	movf	1+(??___flmul+0)+0,w
  4788  0330  084F               	movwf	(___flmul@prod+1)
  4789  0331  00DB               	movf	0+(??___flmul+0)+0,w
  4790  0332  084E               	movwf	(___flmul@prod)
  4791  0333  00DA               
  4792                           	line	178
  4793                           	
  4794                           l2296:	
  4795  0334                     	movlw	01h
  4796  0334  3001               	addwf	(___flmul@temp),f
  4797  0335  07DE               	skipnc
  4798  0336  1803               	incf	(___flmul@temp+1),f
  4799  0337  0ADF               	movlw	0
  4800  0338  3000               	addwf	(___flmul@temp+1),f
  4801  0339  07DF               	goto	l2298
  4802  033A  2B3C               	line	179
  4803                           	
  4804                           l638:	
  4805  033B                     	goto	l2298
  4806  033B  2B3C               	line	180
  4807                           	
  4808                           l637:	
  4809  033C                     	line	183
  4810                           	
  4811                           l2298:	
  4812  033C                     	movf	(___flmul@temp+1),w
  4813  033C  085F               	xorlw	80h
  4814  033D  3A80               	movwf	btemp+1
  4815  033E  00FF               	movlw	(0)^80h
  4816  033F  3080               	subwf	btemp+1,w
  4817  0340  027F               	skipz
  4818  0341  1D03               	goto	u3525
  4819  0342  2B45               	movlw	0FFh
  4820  0343  30FF               	subwf	(___flmul@temp),w
  4821  0344  025E               u3525:
  4822  0345                     
  4823                           	skipc
  4824  0345  1C03               	goto	u3521
  4825  0346  2B48               	goto	u3520
  4826  0347  2B49               u3521:
  4827  0348                     	goto	l2302
  4828  0348  2B54               u3520:
  4829  0349                     	line	184
  4830                           	
  4831                           l2300:	
  4832  0349                     	movlw	07Fh
  4833  0349  307F               	bcf	status, 5	;RP0=0, select bank0
  4834  034A  1283               	bcf	status, 6	;RP1=0, select bank0
  4835  034B  1303               	movwf	(___flmul@prod+3)
  4836  034C  00DD               	movlw	080h
  4837  034D  3080               	movwf	(___flmul@prod+2)
  4838  034E  00DC               	movlw	0
  4839  034F  3000               	movwf	(___flmul@prod+1)
  4840  0350  00DB               	movlw	0
  4841  0351  3000               	movwf	(___flmul@prod)
  4842  0352  00DA               
  4843                           	line	185
  4844                           	goto	l640
  4845  0353  2B8B               	line	187
  4846                           	
  4847                           l639:	
  4848  0354                     	
  4849                           l2302:	
  4850  0354                     	bcf	status, 5	;RP0=0, select bank0
  4851  0354  1283               	bcf	status, 6	;RP1=0, select bank0
  4852  0355  1303               	movf	(___flmul@temp+1),w
  4853  0356  085F               	xorlw	80h
  4854  0357  3A80               	movwf	btemp+1
  4855  0358  00FF               	movlw	(0)^80h
  4856  0359  3080               	subwf	btemp+1,w
  4857  035A  027F               	skipz
  4858  035B  1D03               	goto	u3535
  4859  035C  2B5F               	movlw	01h
  4860  035D  3001               	subwf	(___flmul@temp),w
  4861  035E  025E               u3535:
  4862  035F                     
  4863                           	skipnc
  4864  035F  1803               	goto	u3531
  4865  0360  2B62               	goto	u3530
  4866  0361  2B63               u3531:
  4867  0362                     	goto	l2308
  4868  0362  2B6F               u3530:
  4869  0363                     	line	188
  4870                           	
  4871                           l2304:	
  4872  0363                     	movlw	high highword(0)
  4873  0363  3000               	bcf	status, 5	;RP0=0, select bank0
  4874  0364  1283               	bcf	status, 6	;RP1=0, select bank0
  4875  0365  1303               	movwf	(___flmul@prod+3)
  4876  0366  00DD               	movlw	low highword(0)
  4877  0367  3000               	movwf	(___flmul@prod+2)
  4878  0368  00DC               	movlw	high(0)
  4879  0369  3000               	movwf	(___flmul@prod+1)
  4880  036A  00DB               	movlw	low(0)
  4881  036B  3000               	movwf	(___flmul@prod)
  4882  036C  00DA               
  4883                           	line	190
  4884                           	
  4885                           l2306:	
  4886  036D                     	clrf	(___flmul@sign)
  4887  036D  01D3               	line	191
  4888                           	goto	l640
  4889  036E  2B8B               	line	192
  4890                           	
  4891                           l641:	
  4892  036F                     	line	194
  4893                           	
  4894                           l2308:	
  4895  036F                     	bcf	status, 5	;RP0=0, select bank0
  4896  036F  1283               	bcf	status, 6	;RP1=0, select bank0
  4897  0370  1303               	movf	(___flmul@temp),w
  4898  0371  085E               	movwf	(??___flmul+0)+0
  4899  0372  00CE               	movf	(??___flmul+0)+0,w
  4900  0373  084E               	movwf	(___flmul@bexp)
  4901  0374  00D9               	line	195
  4902                           	movlw	0FFh
  4903  0375  30FF               	andwf	(___flmul@prod),f
  4904  0376  05DA               	movlw	0FFh
  4905  0377  30FF               	andwf	(___flmul@prod+1),f
  4906  0378  05DB               	movlw	07Fh
  4907  0379  307F               	andwf	(___flmul@prod+2),f
  4908  037A  05DC               	movlw	0
  4909  037B  3000               	andwf	(___flmul@prod+3),f
  4910  037C  05DD               	line	196
  4911                           	
  4912                           l2310:	
  4913  037D                     	btfss	(___flmul@bexp),(0)&7
  4914  037D  1C59               	goto	u3541
  4915  037E  2B80               	goto	u3540
  4916  037F  2B81               u3541:
  4917  0380                     	goto	l2314
  4918  0380  2B83               u3540:
  4919  0381                     	line	197
  4920                           	
  4921                           l2312:	
  4922  0381                     	bsf	0+(___flmul@prod)+02h+(7/8),(7)&7
  4923  0381  17DC               	goto	l2314
  4924  0382  2B83               	line	198
  4925                           	
  4926                           l643:	
  4927  0383                     	line	199
  4928                           	
  4929                           l2314:	
  4930  0383                     	movf	(___flmul@bexp),w
  4931  0383  0859               	movwf	(??___flmul+0)+0
  4932  0384  00CE               	clrc
  4933  0385  1003               	rrf	(??___flmul+0)+0,w
  4934  0386  0C4E               	movwf	(??___flmul+1)+0
  4935  0387  00CF               	movf	(??___flmul+1)+0,w
  4936  0388  084F               	movwf	0+(___flmul@prod)+03h
  4937  0389  00DD               	goto	l640
  4938  038A  2B8B               	line	200
  4939                           	
  4940                           l642:	
  4941  038B                     	
  4942                           l640:	
  4943  038B                     	line	201
  4944                           	movf	(___flmul@sign),w
  4945  038B  0853               	movwf	(??___flmul+0)+0
  4946  038C  00CE               	movf	(??___flmul+0)+0,w
  4947  038D  084E               	iorwf	0+(___flmul@prod)+03h,f
  4948  038E  04DD               	line	203
  4949                           	
  4950                           l2316:	
  4951  038F                     	movf	(___flmul@prod+3),w
  4952  038F  085D               	movwf	(?___flmul+3)
  4953  0390  00C9               	movf	(___flmul@prod+2),w
  4954  0391  085C               	movwf	(?___flmul+2)
  4955  0392  00C8               	movf	(___flmul@prod+1),w
  4956  0393  085B               	movwf	(?___flmul+1)
  4957  0394  00C7               	movf	(___flmul@prod),w
  4958  0395  085A               	movwf	(?___flmul)
  4959  0396  00C6               
  4960                           	goto	l628
  4961  0397  2B98               	
  4962                           l2318:	
  4963  0398                     	line	205
  4964                           	
  4965                           l628:	
  4966  0398                     	return
  4967  0398  0008               	opt stack 0
  4968                           GLOBAL	__end_of___flmul
  4969                           	__end_of___flmul:
  4970  0399                     	signat	___flmul,8316
  4971                           	global	__Umul8_16
  4972                           
  4973 ;; *************** function __Umul8_16 *****************
  4974 ;; Defined at:
  4975 ;;		line 4 in file "C:\Program Files (x86)\Microchip\xc8\v2.00\pic\sources\c90\common\Umul8_16.c"
  4976 ;; Parameters:    Size  Location     Type
  4977 ;;  multiplier      1    wreg     unsigned char 
  4978 ;;  multiplicand    1    2[COMMON] unsigned char 
  4979 ;; Auto vars:     Size  Location     Type
  4980 ;;  multiplier      1    4[BANK0 ] unsigned char 
  4981 ;;  word_mpld       2    2[BANK0 ] unsigned int 
  4982 ;;  product         2    0[BANK0 ] unsigned int 
  4983 ;; Return value:  Size  Location     Type
  4984 ;;                  2    2[COMMON] unsigned int 
  4985 ;; Registers used:
  4986 ;;		wreg, status,2, status,0
  4987 ;; Tracked objects:
  4988 ;;		On entry : 0/0
  4989 ;;		On exit  : 0/0
  4990 ;;		Unchanged: 0/0
  4991 ;; Data sizes:     COMMON   BANK0   BANK1   BANK3   BANK2
  4992 ;;      Params:         2       0       0       0       0
  4993 ;;      Locals:         0       5       0       0       0
  4994 ;;      Temps:          2       0       0       0       0
  4995 ;;      Totals:         4       5       0       0       0
  4996 ;;Total ram usage:        9 bytes
  4997 ;; Hardware stack levels used:    1
  4998 ;; Hardware stack levels required when called:    1
  4999 ;; This function calls:
  5000 ;;		Nothing
  5001 ;; This function is called by:
  5002 ;;		___flmul
  5003 ;; This function uses a non-reentrant model
  5004 ;;
  5005                           psect	text12,local,class=CODE,delta=2,merge=1,group=1
  5006                           	file	"C:\Program Files (x86)\Microchip\xc8\v2.00\pic\sources\c90\common\Umul8_16.c"
  5007                           	line	4
  5008                           global __ptext12
  5009                           __ptext12:	;psect for function __Umul8_16
  5010  07C7                     psect	text12
  5011                           	file	"C:\Program Files (x86)\Microchip\xc8\v2.00\pic\sources\c90\common\Umul8_16.c"
  5012                           	line	4
  5013                           	global	__size_of__Umul8_16
  5014                           	__size_of__Umul8_16	equ	__end_of__Umul8_16-__Umul8_16
  5015  002C                     	
  5016                           __Umul8_16:	
  5017  07C7                     ;incstack = 0
  5018                           	opt	stack 5
  5019                           ; Regs used in __Umul8_16: [wreg+status,2+status,0]
  5020                           ;__Umul8_16@multiplier stored from wreg
  5021                           	bcf	status, 5	;RP0=0, select bank0
  5022  07C7  1283               	bcf	status, 6	;RP1=0, select bank0
  5023  07C8  1303               	movwf	(__Umul8_16@multiplier)
  5024  07C9  00A4               	line	5
  5025                           	
  5026                           l2130:	
  5027  07CA                     	clrf	(__Umul8_16@product)
  5028  07CA  01A0               	clrf	(__Umul8_16@product+1)
  5029  07CB  01A1               	line	6
  5030                           	
  5031                           l2132:	
  5032  07CC                     	movf	(__Umul8_16@multiplicand),w
  5033  07CC  0872               	movwf	(??__Umul8_16+0)+0
  5034  07CD  00F4               	clrf	(??__Umul8_16+0)+0+1
  5035  07CE  01F5               	movf	0+(??__Umul8_16+0)+0,w
  5036  07CF  0874               	movwf	(__Umul8_16@word_mpld)
  5037  07D0  00A2               	movf	1+(??__Umul8_16+0)+0,w
  5038  07D1  0875               	movwf	(__Umul8_16@word_mpld+1)
  5039  07D2  00A3               	goto	l2134
  5040  07D3  2FD4               	line	50
  5041                           	
  5042                           l665:	
  5043  07D4                     	line	51
  5044                           	
  5045                           l2134:	
  5046  07D4                     	btfss	(__Umul8_16@multiplier),(0)&7
  5047  07D4  1C24               	goto	u3051
  5048  07D5  2FD7               	goto	u3050
  5049  07D6  2FD8               u3051:
  5050  07D7                     	goto	l666
  5051  07D7  2FDE               u3050:
  5052  07D8                     	line	52
  5053                           	
  5054                           l2136:	
  5055  07D8                     	movf	(__Umul8_16@word_mpld),w
  5056  07D8  0822               	addwf	(__Umul8_16@product),f
  5057  07D9  07A0               	skipnc
  5058  07DA  1803               	incf	(__Umul8_16@product+1),f
  5059  07DB  0AA1               	movf	(__Umul8_16@word_mpld+1),w
  5060  07DC  0823               	addwf	(__Umul8_16@product+1),f
  5061  07DD  07A1               	line	53
  5062                           	
  5063                           l666:	
  5064  07DE                     	line	54
  5065                           	movlw	01h
  5066  07DE  3001               	
  5067                           u3065:
  5068  07DF                     	clrc
  5069  07DF  1003               	rlf	(__Umul8_16@word_mpld),f
  5070  07E0  0DA2               	rlf	(__Umul8_16@word_mpld+1),f
  5071  07E1  0DA3               	addlw	-1
  5072  07E2  3EFF               	skipz
  5073  07E3  1D03               	goto	u3065
  5074  07E4  2FDF               	line	55
  5075                           	clrc
  5076  07E5  1003               	rrf	(__Umul8_16@multiplier),f
  5077  07E6  0CA4               
  5078                           	line	56
  5079                           	
  5080                           l2138:	
  5081  07E7                     	movf	((__Umul8_16@multiplier)),w
  5082  07E7  0824               	btfss	status,2
  5083  07E8  1D03               	goto	u3071
  5084  07E9  2FEB               	goto	u3070
  5085  07EA  2FEC               u3071:
  5086  07EB                     	goto	l2134
  5087  07EB  2FD4               u3070:
  5088  07EC                     	goto	l2140
  5089  07EC  2FED               	
  5090                           l667:	
  5091  07ED                     	line	59
  5092                           	
  5093                           l2140:	
  5094  07ED                     	movf	(__Umul8_16@product+1),w
  5095  07ED  0821               	movwf	(?__Umul8_16+1)
  5096  07EE  00F3               	movf	(__Umul8_16@product),w
  5097  07EF  0820               	movwf	(?__Umul8_16)
  5098  07F0  00F2               	goto	l668
  5099  07F1  2FF2               	
  5100                           l2142:	
  5101  07F2                     	line	60
  5102                           	
  5103                           l668:	
  5104  07F2                     	return
  5105  07F2  0008               	opt stack 0
  5106                           GLOBAL	__end_of__Umul8_16
  5107                           	__end_of__Umul8_16:
  5108  07F3                     	signat	__Umul8_16,8314
  5109                           	global	___fldiv
  5110                           
  5111 ;; *************** function ___fldiv *****************
  5112 ;; Defined at:
  5113 ;;		line 8 in file "C:\Program Files (x86)\Microchip\xc8\v2.00\pic\sources\c90\common\sprcdiv.c"
  5114 ;; Parameters:    Size  Location     Type
  5115 ;;  a               4   64[BANK0 ] unsigned int 
  5116 ;;  b               4   68[BANK0 ] unsigned int 
  5117 ;; Auto vars:     Size  Location     Type
  5118 ;;  grs             4    7[BANK1 ] unsigned long 
  5119 ;;  rem             4    0[BANK1 ] unsigned long 
  5120 ;;  new_exp         2    5[BANK1 ] int 
  5121 ;;  aexp            1   12[BANK1 ] unsigned char 
  5122 ;;  bexp            1   11[BANK1 ] unsigned char 
  5123 ;;  sign            1    4[BANK1 ] unsigned char 
  5124 ;; Return value:  Size  Location     Type
  5125 ;;                  4   64[BANK0 ] unsigned char 
  5126 ;; Registers used:
  5127 ;;		wreg, status,2, status,0, btemp+1
  5128 ;; Tracked objects:
  5129 ;;		On entry : 0/0
  5130 ;;		On exit  : 0/0
  5131 ;;		Unchanged: 0/0
  5132 ;; Data sizes:     COMMON   BANK0   BANK1   BANK3   BANK2
  5133 ;;      Params:         0       8       0       0       0
  5134 ;;      Locals:         0       0      13       0       0
  5135 ;;      Temps:          0       5       0       0       0
  5136 ;;      Totals:         0      13      13       0       0
  5137 ;;Total ram usage:       26 bytes
  5138 ;; Hardware stack levels used:    1
  5139 ;; Hardware stack levels required when called:    1
  5140 ;; This function calls:
  5141 ;;		Nothing
  5142 ;; This function is called by:
  5143 ;;		_main
  5144 ;; This function uses a non-reentrant model
  5145 ;;
  5146                           psect	text13,local,class=CODE,delta=2,merge=1,group=1
  5147                           	file	"C:\Program Files (x86)\Microchip\xc8\v2.00\pic\sources\c90\common\sprcdiv.c"
  5148                           	line	8
  5149                           global __ptext13
  5150                           __ptext13:	;psect for function ___fldiv
  5151  0399                     psect	text13
  5152                           	file	"C:\Program Files (x86)\Microchip\xc8\v2.00\pic\sources\c90\common\sprcdiv.c"
  5153                           	line	8
  5154                           	global	__size_of___fldiv
  5155                           	__size_of___fldiv	equ	__end_of___fldiv-___fldiv
  5156  02CE                     	
  5157                           ___fldiv:	
  5158  0399                     ;incstack = 0
  5159                           	opt	stack 6
  5160                           ; Regs used in ___fldiv: [wreg+status,2+status,0+btemp+1]
  5161                           	line	26
  5162                           	
  5163                           l1772:	
  5164  0399                     	bcf	status, 5	;RP0=0, select bank0
  5165  0399  1283               	bcf	status, 6	;RP1=0, select bank0
  5166  039A  1303               	movf	0+(___fldiv@b)+03h,w
  5167  039B  0867               	andlw	080h
  5168  039C  3980               	movwf	(??___fldiv+0)+0
  5169  039D  00E8               	movf	(??___fldiv+0)+0,w
  5170  039E  0868               	bsf	status, 5	;RP0=1, select bank1
  5171  039F  1683               	bcf	status, 6	;RP1=0, select bank1
  5172  03A0  1303               	movwf	(___fldiv@sign)^080h
  5173  03A1  00A4               	line	27
  5174                           	
  5175                           l1774:	
  5176  03A2                     	bcf	status, 5	;RP0=0, select bank0
  5177  03A2  1283               	bcf	status, 6	;RP1=0, select bank0
  5178  03A3  1303               	movf	0+(___fldiv@b)+03h,w
  5179  03A4  0867               	movwf	(??___fldiv+0)+0
  5180  03A5  00E8               	addwf	(??___fldiv+0)+0,w
  5181  03A6  0768               	movwf	(??___fldiv+1)+0
  5182  03A7  00E9               	movf	(??___fldiv+1)+0,w
  5183  03A8  0869               	bsf	status, 5	;RP0=1, select bank1
  5184  03A9  1683               	bcf	status, 6	;RP1=0, select bank1
  5185  03AA  1303               	movwf	(___fldiv@bexp)^080h
  5186  03AB  00AB               	line	28
  5187                           	
  5188                           l1776:	
  5189  03AC                     	bcf	status, 5	;RP0=0, select bank0
  5190  03AC  1283               	bcf	status, 6	;RP1=0, select bank0
  5191  03AD  1303               	btfss	0+(___fldiv@b)+02h,(7)&7
  5192  03AE  1FE6               	goto	u2241
  5193  03AF  2BB1               	goto	u2240
  5194  03B0  2BB2               u2241:
  5195  03B1                     	goto	l1780
  5196  03B1  2BB6               u2240:
  5197  03B2                     	line	29
  5198                           	
  5199                           l1778:	
  5200  03B2                     	bsf	status, 5	;RP0=1, select bank1
  5201  03B2  1683               	bcf	status, 6	;RP1=0, select bank1
  5202  03B3  1303               	bsf	(___fldiv@bexp)^080h+(0/8),(0)&7
  5203  03B4  142B               	goto	l1780
  5204  03B5  2BB6               	line	30
  5205                           	
  5206                           l581:	
  5207  03B6                     	line	33
  5208                           	
  5209                           l1780:	
  5210  03B6                     	bsf	status, 5	;RP0=1, select bank1
  5211  03B6  1683               	bcf	status, 6	;RP1=0, select bank1
  5212  03B7  1303               	movf	((___fldiv@bexp)^080h),w
  5213  03B8  082B               	btfsc	status,2
  5214  03B9  1903               	goto	u2251
  5215  03BA  2BBC               	goto	u2250
  5216  03BB  2BBD               u2251:
  5217  03BC                     	goto	l1790
  5218  03BC  2BD1               u2250:
  5219  03BD                     	line	35
  5220                           	
  5221                           l1782:	
  5222  03BD                     		incf	((___fldiv@bexp)^080h),w
  5223  03BD  0A2B               	btfss	status,2
  5224  03BE  1D03               	goto	u2261
  5225  03BF  2BC1               	goto	u2260
  5226  03C0  2BC2               u2261:
  5227  03C1                     	goto	l1786
  5228  03C1  2BCD               u2260:
  5229  03C2                     	line	37
  5230                           	
  5231                           l1784:	
  5232  03C2                     	movlw	0x0
  5233  03C2  3000               	bcf	status, 5	;RP0=0, select bank0
  5234  03C3  1283               	bcf	status, 6	;RP1=0, select bank0
  5235  03C4  1303               	movwf	(___fldiv@b+3)
  5236  03C5  00E7               	movlw	0x0
  5237  03C6  3000               	movwf	(___fldiv@b+2)
  5238  03C7  00E6               	movlw	0x0
  5239  03C8  3000               	movwf	(___fldiv@b+1)
  5240  03C9  00E5               	movlw	0x0
  5241  03CA  3000               	movwf	(___fldiv@b)
  5242  03CB  00E4               
  5243                           	goto	l1786
  5244  03CC  2BCD               	line	38
  5245                           	
  5246                           l583:	
  5247  03CD                     	line	40
  5248                           	
  5249                           l1786:	
  5250  03CD                     	bcf	status, 5	;RP0=0, select bank0
  5251  03CD  1283               	bsf	(___fldiv@b)+(23/8),(23)&7
  5252  03CE  17E6               	line	42
  5253                           	
  5254                           l1788:	
  5255  03CF                     	clrf	0+(___fldiv@b)+03h
  5256  03CF  01E7               	line	43
  5257                           	goto	l1792
  5258  03D0  2BDB               	line	44
  5259                           	
  5260                           l582:	
  5261  03D1                     	line	46
  5262                           	
  5263                           l1790:	
  5264  03D1                     	movlw	0x0
  5265  03D1  3000               	bcf	status, 5	;RP0=0, select bank0
  5266  03D2  1283               	movwf	(___fldiv@b+3)
  5267  03D3  00E7               	movlw	0x0
  5268  03D4  3000               	movwf	(___fldiv@b+2)
  5269  03D5  00E6               	movlw	0x0
  5270  03D6  3000               	movwf	(___fldiv@b+1)
  5271  03D7  00E5               	movlw	0x0
  5272  03D8  3000               	movwf	(___fldiv@b)
  5273  03D9  00E4               
  5274                           	goto	l1792
  5275  03DA  2BDB               	line	47
  5276                           	
  5277                           l584:	
  5278  03DB                     	line	49
  5279                           	
  5280                           l1792:	
  5281  03DB                     	movf	0+(___fldiv@a)+03h,w
  5282  03DB  0863               	andlw	080h
  5283  03DC  3980               	movwf	(??___fldiv+0)+0
  5284  03DD  00E8               	movf	(??___fldiv+0)+0,w
  5285  03DE  0868               	bsf	status, 5	;RP0=1, select bank1
  5286  03DF  1683               	bcf	status, 6	;RP1=0, select bank1
  5287  03E0  1303               	xorwf	(___fldiv@sign)^080h,f
  5288  03E1  06A4               	line	50
  5289                           	
  5290                           l1794:	
  5291  03E2                     	bcf	status, 5	;RP0=0, select bank0
  5292  03E2  1283               	bcf	status, 6	;RP1=0, select bank0
  5293  03E3  1303               	movf	0+(___fldiv@a)+03h,w
  5294  03E4  0863               	movwf	(??___fldiv+0)+0
  5295  03E5  00E8               	addwf	(??___fldiv+0)+0,w
  5296  03E6  0768               	movwf	(??___fldiv+1)+0
  5297  03E7  00E9               	movf	(??___fldiv+1)+0,w
  5298  03E8  0869               	bsf	status, 5	;RP0=1, select bank1
  5299  03E9  1683               	bcf	status, 6	;RP1=0, select bank1
  5300  03EA  1303               	movwf	(___fldiv@aexp)^080h
  5301  03EB  00AC               	line	51
  5302                           	
  5303                           l1796:	
  5304  03EC                     	bcf	status, 5	;RP0=0, select bank0
  5305  03EC  1283               	bcf	status, 6	;RP1=0, select bank0
  5306  03ED  1303               	btfss	0+(___fldiv@a)+02h,(7)&7
  5307  03EE  1FE2               	goto	u2271
  5308  03EF  2BF1               	goto	u2270
  5309  03F0  2BF2               u2271:
  5310  03F1                     	goto	l1800
  5311  03F1  2BF6               u2270:
  5312  03F2                     	line	52
  5313                           	
  5314                           l1798:	
  5315  03F2                     	bsf	status, 5	;RP0=1, select bank1
  5316  03F2  1683               	bcf	status, 6	;RP1=0, select bank1
  5317  03F3  1303               	bsf	(___fldiv@aexp)^080h+(0/8),(0)&7
  5318  03F4  142C               	goto	l1800
  5319  03F5  2BF6               	line	53
  5320                           	
  5321                           l585:	
  5322  03F6                     	line	56
  5323                           	
  5324                           l1800:	
  5325  03F6                     	bsf	status, 5	;RP0=1, select bank1
  5326  03F6  1683               	bcf	status, 6	;RP1=0, select bank1
  5327  03F7  1303               	movf	((___fldiv@aexp)^080h),w
  5328  03F8  082C               	btfsc	status,2
  5329  03F9  1903               	goto	u2281
  5330  03FA  2BFC               	goto	u2280
  5331  03FB  2BFD               u2281:
  5332  03FC                     	goto	l1810
  5333  03FC  2C11               u2280:
  5334  03FD                     	line	58
  5335                           	
  5336                           l1802:	
  5337  03FD                     		incf	((___fldiv@aexp)^080h),w
  5338  03FD  0A2C               	btfss	status,2
  5339  03FE  1D03               	goto	u2291
  5340  03FF  2C01               	goto	u2290
  5341  0400  2C02               u2291:
  5342  0401                     	goto	l1806
  5343  0401  2C0D               u2290:
  5344  0402                     	line	60
  5345                           	
  5346                           l1804:	
  5347  0402                     	movlw	0x0
  5348  0402  3000               	bcf	status, 5	;RP0=0, select bank0
  5349  0403  1283               	bcf	status, 6	;RP1=0, select bank0
  5350  0404  1303               	movwf	(___fldiv@a+3)
  5351  0405  00E3               	movlw	0x0
  5352  0406  3000               	movwf	(___fldiv@a+2)
  5353  0407  00E2               	movlw	0x0
  5354  0408  3000               	movwf	(___fldiv@a+1)
  5355  0409  00E1               	movlw	0x0
  5356  040A  3000               	movwf	(___fldiv@a)
  5357  040B  00E0               
  5358                           	goto	l1806
  5359  040C  2C0D               	line	61
  5360                           	
  5361                           l587:	
  5362  040D                     	line	63
  5363                           	
  5364                           l1806:	
  5365  040D                     	bcf	status, 5	;RP0=0, select bank0
  5366  040D  1283               	bsf	(___fldiv@a)+(23/8),(23)&7
  5367  040E  17E2               	line	65
  5368                           	
  5369                           l1808:	
  5370  040F                     	clrf	0+(___fldiv@a)+03h
  5371  040F  01E3               	line	66
  5372                           	goto	l588
  5373  0410  2C1A               	line	67
  5374                           	
  5375                           l586:	
  5376  0411                     	line	69
  5377                           	
  5378                           l1810:	
  5379  0411                     	movlw	0x0
  5380  0411  3000               	bcf	status, 5	;RP0=0, select bank0
  5381  0412  1283               	movwf	(___fldiv@a+3)
  5382  0413  00E3               	movlw	0x0
  5383  0414  3000               	movwf	(___fldiv@a+2)
  5384  0415  00E2               	movlw	0x0
  5385  0416  3000               	movwf	(___fldiv@a+1)
  5386  0417  00E1               	movlw	0x0
  5387  0418  3000               	movwf	(___fldiv@a)
  5388  0419  00E0               
  5389                           	line	70
  5390                           	
  5391                           l588:	
  5392  041A                     	line	75
  5393                           	movf	(___fldiv@a+3),w
  5394  041A  0863               	iorwf	(___fldiv@a+2),w
  5395  041B  0462               	iorwf	(___fldiv@a+1),w
  5396  041C  0461               	iorwf	(___fldiv@a),w
  5397  041D  0460               	skipz
  5398  041E  1D03               	goto	u2301
  5399  041F  2C21               	goto	u2300
  5400  0420  2C22               u2301:
  5401  0421                     	goto	l1820
  5402  0421  2C40               u2300:
  5403  0422                     	line	76
  5404                           	
  5405                           l1812:	
  5406  0422                     	movlw	high highword(0)
  5407  0422  3000               	movwf	(___fldiv@b+3)
  5408  0423  00E7               	movlw	low highword(0)
  5409  0424  3000               	movwf	(___fldiv@b+2)
  5410  0425  00E6               	movlw	high(0)
  5411  0426  3000               	movwf	(___fldiv@b+1)
  5412  0427  00E5               	movlw	low(0)
  5413  0428  3000               	movwf	(___fldiv@b)
  5414  0429  00E4               
  5415                           	line	77
  5416                           	movlw	080h
  5417  042A  3080               	iorwf	0+(___fldiv@b)+02h,f
  5418  042B  04E6               	movlw	07Fh
  5419  042C  307F               	iorwf	1+(___fldiv@b)+02h,f
  5420  042D  04E7               	line	78
  5421                           	
  5422                           l1814:	
  5423  042E                     	bsf	status, 5	;RP0=1, select bank1
  5424  042E  1683               	bcf	status, 6	;RP1=0, select bank1
  5425  042F  1303               	movf	(___fldiv@sign)^080h,w
  5426  0430  0824               	bcf	status, 5	;RP0=0, select bank0
  5427  0431  1283               	bcf	status, 6	;RP1=0, select bank0
  5428  0432  1303               	movwf	(??___fldiv+0)+0
  5429  0433  00E8               	movf	(??___fldiv+0)+0,w
  5430  0434  0868               	iorwf	0+(___fldiv@b)+03h,f
  5431  0435  04E7               	line	79
  5432                           	
  5433                           l1816:	
  5434  0436                     	movf	(___fldiv@b+3),w
  5435  0436  0867               	movwf	(?___fldiv+3)
  5436  0437  00E3               	movf	(___fldiv@b+2),w
  5437  0438  0866               	movwf	(?___fldiv+2)
  5438  0439  00E2               	movf	(___fldiv@b+1),w
  5439  043A  0865               	movwf	(?___fldiv+1)
  5440  043B  00E1               	movf	(___fldiv@b),w
  5441  043C  0864               	movwf	(?___fldiv)
  5442  043D  00E0               
  5443                           	goto	l590
  5444  043E  2E66               	
  5445                           l1818:	
  5446  043F                     	goto	l590
  5447  043F  2E66               	line	80
  5448                           	
  5449                           l589:	
  5450  0440                     	line	83
  5451                           	
  5452                           l1820:	
  5453  0440                     	bsf	status, 5	;RP0=1, select bank1
  5454  0440  1683               	bcf	status, 6	;RP1=0, select bank1
  5455  0441  1303               	movf	((___fldiv@bexp)^080h),w
  5456  0442  082B               	btfss	status,2
  5457  0443  1D03               	goto	u2311
  5458  0444  2C46               	goto	u2310
  5459  0445  2C47               u2311:
  5460  0446                     	goto	l1826
  5461  0446  2C5B               u2310:
  5462  0447                     	line	84
  5463                           	
  5464                           l1822:	
  5465  0447                     	movlw	high highword(0)
  5466  0447  3000               	bcf	status, 5	;RP0=0, select bank0
  5467  0448  1283               	bcf	status, 6	;RP1=0, select bank0
  5468  0449  1303               	movwf	(___fldiv@b+3)
  5469  044A  00E7               	movlw	low highword(0)
  5470  044B  3000               	movwf	(___fldiv@b+2)
  5471  044C  00E6               	movlw	high(0)
  5472  044D  3000               	movwf	(___fldiv@b+1)
  5473  044E  00E5               	movlw	low(0)
  5474  044F  3000               	movwf	(___fldiv@b)
  5475  0450  00E4               
  5476                           	line	85
  5477                           	movf	(___fldiv@b+3),w
  5478  0451  0867               	movwf	(?___fldiv+3)
  5479  0452  00E3               	movf	(___fldiv@b+2),w
  5480  0453  0866               	movwf	(?___fldiv+2)
  5481  0454  00E2               	movf	(___fldiv@b+1),w
  5482  0455  0865               	movwf	(?___fldiv+1)
  5483  0456  00E1               	movf	(___fldiv@b),w
  5484  0457  0864               	movwf	(?___fldiv)
  5485  0458  00E0               
  5486                           	goto	l590
  5487  0459  2E66               	
  5488                           l1824:	
  5489  045A                     	goto	l590
  5490  045A  2E66               	line	86
  5491                           	
  5492                           l591:	
  5493  045B                     	line	89
  5494                           	
  5495                           l1826:	
  5496  045B                     	bsf	status, 5	;RP0=1, select bank1
  5497  045B  1683               	bcf	status, 6	;RP1=0, select bank1
  5498  045C  1303               	movf	(___fldiv@aexp)^080h,w
  5499  045D  082C               	bcf	status, 5	;RP0=0, select bank0
  5500  045E  1283               	bcf	status, 6	;RP1=0, select bank0
  5501  045F  1303               	movwf	(??___fldiv+0)+0
  5502  0460  00E8               	clrf	(??___fldiv+0)+0+1
  5503  0461  01E9               	comf	(??___fldiv+0)+0,f
  5504  0462  09E8               	comf	(??___fldiv+0)+1,f
  5505  0463  09E9               	incf	(??___fldiv+0)+0,f
  5506  0464  0AE8               	skipnz
  5507  0465  1903               	incf	(??___fldiv+0)+1,f
  5508  0466  0AE9               	bsf	status, 5	;RP0=1, select bank1
  5509  0467  1683               	bcf	status, 6	;RP1=0, select bank1
  5510  0468  1303               	movf	(___fldiv@bexp)^080h,w
  5511  0469  082B               	bcf	status, 5	;RP0=0, select bank0
  5512  046A  1283               	bcf	status, 6	;RP1=0, select bank0
  5513  046B  1303               	addwf	0+(??___fldiv+0)+0,w
  5514  046C  0768               	movwf	(??___fldiv+2)+0
  5515  046D  00EA               	movf	1+(??___fldiv+0)+0,w
  5516  046E  0869               	skipnc
  5517  046F  1803               	incf	1+(??___fldiv+0)+0,w
  5518  0470  0A69               	movwf	((??___fldiv+2)+0)+1
  5519  0471  00EB               	movf	0+(??___fldiv+2)+0,w
  5520  0472  086A               	addlw	low(07Fh)
  5521  0473  3E7F               	bsf	status, 5	;RP0=1, select bank1
  5522  0474  1683               	bcf	status, 6	;RP1=0, select bank1
  5523  0475  1303               	movwf	(___fldiv@new_exp)^080h
  5524  0476  00A5               	bcf	status, 5	;RP0=0, select bank0
  5525  0477  1283               	bcf	status, 6	;RP1=0, select bank0
  5526  0478  1303               	movf	1+(??___fldiv+2)+0,w
  5527  0479  086B               	skipnc
  5528  047A  1803               	addlw	1
  5529  047B  3E01               	addlw	high(07Fh)
  5530  047C  3E00               	bsf	status, 5	;RP0=1, select bank1
  5531  047D  1683               	bcf	status, 6	;RP1=0, select bank1
  5532  047E  1303               	movwf	1+(___fldiv@new_exp)^080h
  5533  047F  00A6               	line	92
  5534                           	
  5535                           l1828:	
  5536  0480                     	bcf	status, 5	;RP0=0, select bank0
  5537  0480  1283               	bcf	status, 6	;RP1=0, select bank0
  5538  0481  1303               	movf	(___fldiv@b+3),w
  5539  0482  0867               	bsf	status, 5	;RP0=1, select bank1
  5540  0483  1683               	bcf	status, 6	;RP1=0, select bank1
  5541  0484  1303               	movwf	(___fldiv@rem+3)^080h
  5542  0485  00A3               	bcf	status, 5	;RP0=0, select bank0
  5543  0486  1283               	bcf	status, 6	;RP1=0, select bank0
  5544  0487  1303               	movf	(___fldiv@b+2),w
  5545  0488  0866               	bsf	status, 5	;RP0=1, select bank1
  5546  0489  1683               	bcf	status, 6	;RP1=0, select bank1
  5547  048A  1303               	movwf	(___fldiv@rem+2)^080h
  5548  048B  00A2               	bcf	status, 5	;RP0=0, select bank0
  5549  048C  1283               	bcf	status, 6	;RP1=0, select bank0
  5550  048D  1303               	movf	(___fldiv@b+1),w
  5551  048E  0865               	bsf	status, 5	;RP0=1, select bank1
  5552  048F  1683               	bcf	status, 6	;RP1=0, select bank1
  5553  0490  1303               	movwf	(___fldiv@rem+1)^080h
  5554  0491  00A1               	bcf	status, 5	;RP0=0, select bank0
  5555  0492  1283               	bcf	status, 6	;RP1=0, select bank0
  5556  0493  1303               	movf	(___fldiv@b),w
  5557  0494  0864               	bsf	status, 5	;RP0=1, select bank1
  5558  0495  1683               	bcf	status, 6	;RP1=0, select bank1
  5559  0496  1303               	movwf	(___fldiv@rem)^080h
  5560  0497  00A0               
  5561                           	line	93
  5562                           	
  5563                           l1830:	
  5564  0498                     	movlw	high highword(0)
  5565  0498  3000               	bcf	status, 5	;RP0=0, select bank0
  5566  0499  1283               	bcf	status, 6	;RP1=0, select bank0
  5567  049A  1303               	movwf	(___fldiv@b+3)
  5568  049B  00E7               	movlw	low highword(0)
  5569  049C  3000               	movwf	(___fldiv@b+2)
  5570  049D  00E6               	movlw	high(0)
  5571  049E  3000               	movwf	(___fldiv@b+1)
  5572  049F  00E5               	movlw	low(0)
  5573  04A0  3000               	movwf	(___fldiv@b)
  5574  04A1  00E4               
  5575                           	line	94
  5576                           	
  5577                           l1832:	
  5578  04A2                     	movlw	high highword(0)
  5579  04A2  3000               	bsf	status, 5	;RP0=1, select bank1
  5580  04A3  1683               	bcf	status, 6	;RP1=0, select bank1
  5581  04A4  1303               	movwf	(___fldiv@grs+3)^080h
  5582  04A5  00AA               	movlw	low highword(0)
  5583  04A6  3000               	movwf	(___fldiv@grs+2)^080h
  5584  04A7  00A9               	movlw	high(0)
  5585  04A8  3000               	movwf	(___fldiv@grs+1)^080h
  5586  04A9  00A8               	movlw	low(0)
  5587  04AA  3000               	movwf	(___fldiv@grs)^080h
  5588  04AB  00A7               
  5589                           	line	96
  5590                           	
  5591                           l1834:	
  5592  04AC                     	clrf	(___fldiv@aexp)^080h
  5593  04AC  01AC               	line	97
  5594                           	goto	l1854
  5595  04AD  2D38               	
  5596                           l593:	
  5597  04AE                     	line	100
  5598                           	
  5599                           l1836:	
  5600  04AE                     	movf	((___fldiv@aexp)^080h),w
  5601  04AE  082C               	btfsc	status,2
  5602  04AF  1903               	goto	u2321
  5603  04B0  2CB2               	goto	u2320
  5604  04B1  2CB3               u2321:
  5605  04B2                     	goto	l1846
  5606  04B2  2CE4               u2320:
  5607  04B3                     	line	101
  5608                           	
  5609                           l1838:	
  5610  04B3                     	movlw	01h
  5611  04B3  3001               	bcf	status, 5	;RP0=0, select bank0
  5612  04B4  1283               	bcf	status, 6	;RP1=0, select bank0
  5613  04B5  1303               	movwf	(??___fldiv+0)+0
  5614  04B6  00E8               u2335:
  5615  04B7                     	clrc
  5616  04B7  1003               	bsf	status, 5	;RP0=1, select bank1
  5617  04B8  1683               	bcf	status, 6	;RP1=0, select bank1
  5618  04B9  1303               	rlf	(___fldiv@rem)^080h,f
  5619  04BA  0DA0               	rlf	(___fldiv@rem+1)^080h,f
  5620  04BB  0DA1               	rlf	(___fldiv@rem+2)^080h,f
  5621  04BC  0DA2               	rlf	(___fldiv@rem+3)^080h,f
  5622  04BD  0DA3               	bcf	status, 5	;RP0=0, select bank0
  5623  04BE  1283               	bcf	status, 6	;RP1=0, select bank0
  5624  04BF  1303               	decfsz	(??___fldiv+0)+0
  5625  04C0  0BE8               	goto	u2335
  5626  04C1  2CB7               	line	102
  5627                           	movlw	01h
  5628  04C2  3001               	movwf	(??___fldiv+0)+0
  5629  04C3  00E8               u2345:
  5630  04C4                     	clrc
  5631  04C4  1003               	rlf	(___fldiv@b),f
  5632  04C5  0DE4               	rlf	(___fldiv@b+1),f
  5633  04C6  0DE5               	rlf	(___fldiv@b+2),f
  5634  04C7  0DE6               	rlf	(___fldiv@b+3),f
  5635  04C8  0DE7               	decfsz	(??___fldiv+0)+0
  5636  04C9  0BE8               	goto	u2345
  5637  04CA  2CC4               	line	103
  5638                           	
  5639                           l1840:	
  5640  04CB                     	bsf	status, 5	;RP0=1, select bank1
  5641  04CB  1683               	bcf	status, 6	;RP1=0, select bank1
  5642  04CC  1303               	btfss	(___fldiv@grs+3)^080h,(31)&7
  5643  04CD  1FAA               	goto	u2351
  5644  04CE  2CD0               	goto	u2350
  5645  04CF  2CD1               u2351:
  5646  04D0                     	goto	l1844
  5647  04D0  2CD5               u2350:
  5648  04D1                     	line	104
  5649                           	
  5650                           l1842:	
  5651  04D1                     	bcf	status, 5	;RP0=0, select bank0
  5652  04D1  1283               	bcf	status, 6	;RP1=0, select bank0
  5653  04D2  1303               	bsf	(___fldiv@b)+(0/8),(0)&7
  5654  04D3  1464               	goto	l1844
  5655  04D4  2CD5               	line	105
  5656                           	
  5657                           l595:	
  5658  04D5                     	line	106
  5659                           	
  5660                           l1844:	
  5661  04D5                     	movlw	01h
  5662  04D5  3001               	bcf	status, 5	;RP0=0, select bank0
  5663  04D6  1283               	movwf	(??___fldiv+0)+0
  5664  04D7  00E8               u2365:
  5665  04D8                     	clrc
  5666  04D8  1003               	bsf	status, 5	;RP0=1, select bank1
  5667  04D9  1683               	bcf	status, 6	;RP1=0, select bank1
  5668  04DA  1303               	rlf	(___fldiv@grs)^080h,f
  5669  04DB  0DA7               	rlf	(___fldiv@grs+1)^080h,f
  5670  04DC  0DA8               	rlf	(___fldiv@grs+2)^080h,f
  5671  04DD  0DA9               	rlf	(___fldiv@grs+3)^080h,f
  5672  04DE  0DAA               	bcf	status, 5	;RP0=0, select bank0
  5673  04DF  1283               	bcf	status, 6	;RP1=0, select bank0
  5674  04E0  1303               	decfsz	(??___fldiv+0)+0
  5675  04E1  0BE8               	goto	u2365
  5676  04E2  2CD8               	goto	l1846
  5677  04E3  2CE4               	line	107
  5678                           	
  5679                           l594:	
  5680  04E4                     	line	112
  5681                           	
  5682                           l1846:	
  5683  04E4                     	bcf	status, 5	;RP0=0, select bank0
  5684  04E4  1283               	movf	(___fldiv@a+3),w
  5685  04E5  0863               	bsf	status, 5	;RP0=1, select bank1
  5686  04E6  1683               	bcf	status, 6	;RP1=0, select bank1
  5687  04E7  1303               	subwf	(___fldiv@rem+3)^080h,w
  5688  04E8  0223               	skipz
  5689  04E9  1D03               	goto	u2375
  5690  04EA  2D01               	bcf	status, 5	;RP0=0, select bank0
  5691  04EB  1283               	bcf	status, 6	;RP1=0, select bank0
  5692  04EC  1303               	movf	(___fldiv@a+2),w
  5693  04ED  0862               	bsf	status, 5	;RP0=1, select bank1
  5694  04EE  1683               	bcf	status, 6	;RP1=0, select bank1
  5695  04EF  1303               	subwf	(___fldiv@rem+2)^080h,w
  5696  04F0  0222               	skipz
  5697  04F1  1D03               	goto	u2375
  5698  04F2  2D01               	bcf	status, 5	;RP0=0, select bank0
  5699  04F3  1283               	bcf	status, 6	;RP1=0, select bank0
  5700  04F4  1303               	movf	(___fldiv@a+1),w
  5701  04F5  0861               	bsf	status, 5	;RP0=1, select bank1
  5702  04F6  1683               	bcf	status, 6	;RP1=0, select bank1
  5703  04F7  1303               	subwf	(___fldiv@rem+1)^080h,w
  5704  04F8  0221               	skipz
  5705  04F9  1D03               	goto	u2375
  5706  04FA  2D01               	bcf	status, 5	;RP0=0, select bank0
  5707  04FB  1283               	bcf	status, 6	;RP1=0, select bank0
  5708  04FC  1303               	movf	(___fldiv@a),w
  5709  04FD  0860               	bsf	status, 5	;RP0=1, select bank1
  5710  04FE  1683               	bcf	status, 6	;RP1=0, select bank1
  5711  04FF  1303               	subwf	(___fldiv@rem)^080h,w
  5712  0500  0220               u2375:
  5713  0501                     	skipc
  5714  0501  1C03               	goto	u2371
  5715  0502  2D04               	goto	u2370
  5716  0503  2D05               u2371:
  5717  0504                     	goto	l1852
  5718  0504  2D2F               u2370:
  5719  0505                     	line	115
  5720                           	
  5721                           l1848:	
  5722  0505                     	bsf	(___fldiv@grs)^080h+(30/8),(30)&7
  5723  0505  172A               	line	116
  5724                           	
  5725                           l1850:	
  5726  0506                     	bcf	status, 5	;RP0=0, select bank0
  5727  0506  1283               	bcf	status, 6	;RP1=0, select bank0
  5728  0507  1303               	movf	(___fldiv@a),w
  5729  0508  0860               	bsf	status, 5	;RP0=1, select bank1
  5730  0509  1683               	bcf	status, 6	;RP1=0, select bank1
  5731  050A  1303               	subwf	(___fldiv@rem)^080h,f
  5732  050B  02A0               	bcf	status, 5	;RP0=0, select bank0
  5733  050C  1283               	bcf	status, 6	;RP1=0, select bank0
  5734  050D  1303               	movf	(___fldiv@a+1),w
  5735  050E  0861               	skipc
  5736  050F  1C03               	incfsz	(___fldiv@a+1),w
  5737  0510  0F61               	goto	u2385
  5738  0511  2D13               	goto	u2386
  5739  0512  2D16               u2385:
  5740  0513                     	bsf	status, 5	;RP0=1, select bank1
  5741  0513  1683               	bcf	status, 6	;RP1=0, select bank1
  5742  0514  1303               	subwf	(___fldiv@rem+1)^080h,f
  5743  0515  02A1               u2386:
  5744  0516                     	bcf	status, 5	;RP0=0, select bank0
  5745  0516  1283               	bcf	status, 6	;RP1=0, select bank0
  5746  0517  1303               	movf	(___fldiv@a+2),w
  5747  0518  0862               	skipc
  5748  0519  1C03               	incfsz	(___fldiv@a+2),w
  5749  051A  0F62               	goto	u2387
  5750  051B  2D1D               	goto	u2388
  5751  051C  2D20               u2387:
  5752  051D                     	bsf	status, 5	;RP0=1, select bank1
  5753  051D  1683               	bcf	status, 6	;RP1=0, select bank1
  5754  051E  1303               	subwf	(___fldiv@rem+2)^080h,f
  5755  051F  02A2               u2388:
  5756  0520                     	bcf	status, 5	;RP0=0, select bank0
  5757  0520  1283               	bcf	status, 6	;RP1=0, select bank0
  5758  0521  1303               	movf	(___fldiv@a+3),w
  5759  0522  0863               	skipc
  5760  0523  1C03               	incfsz	(___fldiv@a+3),w
  5761  0524  0F63               	goto	u2389
  5762  0525  2D27               	goto	u2380
  5763  0526  2D2A               u2389:
  5764  0527                     	bsf	status, 5	;RP0=1, select bank1
  5765  0527  1683               	bcf	status, 6	;RP1=0, select bank1
  5766  0528  1303               	subwf	(___fldiv@rem+3)^080h,f
  5767  0529  02A3               u2380:
  5768  052A                     	bcf	status, 5	;RP0=0, select bank0
  5769  052A  1283               	bcf	status, 6	;RP1=0, select bank0
  5770  052B  1303               	bsf	status, 5	;RP0=1, select bank1
  5771  052C  1683               	bcf	status, 6	;RP1=0, select bank1
  5772  052D  1303               
  5773                           	goto	l1852
  5774  052E  2D2F               	line	117
  5775                           	
  5776                           l596:	
  5777  052F                     	line	118
  5778                           	
  5779                           l1852:	
  5780  052F                     	movlw	low(01h)
  5781  052F  3001               	bcf	status, 5	;RP0=0, select bank0
  5782  0530  1283               	bcf	status, 6	;RP1=0, select bank0
  5783  0531  1303               	movwf	(??___fldiv+0)+0
  5784  0532  00E8               	movf	(??___fldiv+0)+0,w
  5785  0533  0868               	bsf	status, 5	;RP0=1, select bank1
  5786  0534  1683               	bcf	status, 6	;RP1=0, select bank1
  5787  0535  1303               	addwf	(___fldiv@aexp)^080h,f
  5788  0536  07AC               	goto	l1854
  5789  0537  2D38               	line	119
  5790                           	
  5791                           l592:	
  5792  0538                     	line	97
  5793                           	
  5794                           l1854:	
  5795  0538                     	movlw	low(01Ah)
  5796  0538  301A               	subwf	(___fldiv@aexp)^080h,w
  5797  0539  022C               	skipc
  5798  053A  1C03               	goto	u2391
  5799  053B  2D3D               	goto	u2390
  5800  053C  2D3E               u2391:
  5801  053D                     	goto	l1836
  5802  053D  2CAE               u2390:
  5803  053E                     	goto	l1856
  5804  053E  2D3F               	
  5805                           l597:	
  5806  053F                     	line	122
  5807                           	
  5808                           l1856:	
  5809  053F                     	movf	(___fldiv@rem+3)^080h,w
  5810  053F  0823               	iorwf	(___fldiv@rem+2)^080h,w
  5811  0540  0422               	iorwf	(___fldiv@rem+1)^080h,w
  5812  0541  0421               	iorwf	(___fldiv@rem)^080h,w
  5813  0542  0420               	skipnz
  5814  0543  1903               	goto	u2401
  5815  0544  2D46               	goto	u2400
  5816  0545  2D47               u2401:
  5817  0546                     	goto	l1870
  5818  0546  2D75               u2400:
  5819  0547                     	line	123
  5820                           	
  5821                           l1858:	
  5822  0547                     	bsf	(___fldiv@grs)^080h+(0/8),(0)&7
  5823  0547  1427               	goto	l1870
  5824  0548  2D75               	line	124
  5825                           	
  5826                           l598:	
  5827  0549                     	line	127
  5828                           	goto	l1870
  5829  0549  2D75               	
  5830                           l600:	
  5831  054A                     	line	128
  5832                           	
  5833                           l1860:	
  5834  054A                     	movlw	01h
  5835  054A  3001               	bcf	status, 5	;RP0=0, select bank0
  5836  054B  1283               	movwf	(??___fldiv+0)+0
  5837  054C  00E8               u2415:
  5838  054D                     	clrc
  5839  054D  1003               	rlf	(___fldiv@b),f
  5840  054E  0DE4               	rlf	(___fldiv@b+1),f
  5841  054F  0DE5               	rlf	(___fldiv@b+2),f
  5842  0550  0DE6               	rlf	(___fldiv@b+3),f
  5843  0551  0DE7               	decfsz	(??___fldiv+0)+0
  5844  0552  0BE8               	goto	u2415
  5845  0553  2D4D               	line	129
  5846                           	
  5847                           l1862:	
  5848  0554                     	bsf	status, 5	;RP0=1, select bank1
  5849  0554  1683               	bcf	status, 6	;RP1=0, select bank1
  5850  0555  1303               	btfss	(___fldiv@grs+3)^080h,(31)&7
  5851  0556  1FAA               	goto	u2421
  5852  0557  2D59               	goto	u2420
  5853  0558  2D5A               u2421:
  5854  0559                     	goto	l1866
  5855  0559  2D5E               u2420:
  5856  055A                     	line	130
  5857                           	
  5858                           l1864:	
  5859  055A                     	bcf	status, 5	;RP0=0, select bank0
  5860  055A  1283               	bcf	status, 6	;RP1=0, select bank0
  5861  055B  1303               	bsf	(___fldiv@b)+(0/8),(0)&7
  5862  055C  1464               	goto	l1866
  5863  055D  2D5E               	line	131
  5864                           	
  5865                           l601:	
  5866  055E                     	line	132
  5867                           	
  5868                           l1866:	
  5869  055E                     	movlw	01h
  5870  055E  3001               	bcf	status, 5	;RP0=0, select bank0
  5871  055F  1283               	movwf	(??___fldiv+0)+0
  5872  0560  00E8               u2435:
  5873  0561                     	clrc
  5874  0561  1003               	bsf	status, 5	;RP0=1, select bank1
  5875  0562  1683               	bcf	status, 6	;RP1=0, select bank1
  5876  0563  1303               	rlf	(___fldiv@grs)^080h,f
  5877  0564  0DA7               	rlf	(___fldiv@grs+1)^080h,f
  5878  0565  0DA8               	rlf	(___fldiv@grs+2)^080h,f
  5879  0566  0DA9               	rlf	(___fldiv@grs+3)^080h,f
  5880  0567  0DAA               	bcf	status, 5	;RP0=0, select bank0
  5881  0568  1283               	bcf	status, 6	;RP1=0, select bank0
  5882  0569  1303               	decfsz	(??___fldiv+0)+0
  5883  056A  0BE8               	goto	u2435
  5884  056B  2D61               	line	133
  5885                           	
  5886                           l1868:	
  5887  056C                     	movlw	0FFh
  5888  056C  30FF               	bsf	status, 5	;RP0=1, select bank1
  5889  056D  1683               	bcf	status, 6	;RP1=0, select bank1
  5890  056E  1303               	addwf	(___fldiv@new_exp)^080h,f
  5891  056F  07A5               	skipnc
  5892  0570  1803               	incf	(___fldiv@new_exp+1)^080h,f
  5893  0571  0AA6               	movlw	0FFh
  5894  0572  30FF               	addwf	(___fldiv@new_exp+1)^080h,f
  5895  0573  07A6               	goto	l1870
  5896  0574  2D75               	line	134
  5897                           	
  5898                           l599:	
  5899  0575                     	line	127
  5900                           	
  5901                           l1870:	
  5902  0575                     	bcf	status, 5	;RP0=0, select bank0
  5903  0575  1283               	bcf	status, 6	;RP1=0, select bank0
  5904  0576  1303               	btfss	(___fldiv@b+2),(23)&7
  5905  0577  1FE6               	goto	u2441
  5906  0578  2D7A               	goto	u2440
  5907  0579  2D7B               u2441:
  5908  057A                     	goto	l1860
  5909  057A  2D4A               u2440:
  5910  057B                     	goto	l1872
  5911  057B  2D7C               	
  5912                           l602:	
  5913  057C                     	line	139
  5914                           	
  5915                           l1872:	
  5916  057C                     	bsf	status, 5	;RP0=1, select bank1
  5917  057C  1683               	bcf	status, 6	;RP1=0, select bank1
  5918  057D  1303               	clrf	(___fldiv@aexp)^080h
  5919  057E  01AC               	line	140
  5920                           	
  5921                           l1874:	
  5922  057F                     	btfss	(___fldiv@grs+3)^080h,(31)&7
  5923  057F  1FAA               	goto	u2451
  5924  0580  2D82               	goto	u2450
  5925  0581  2D83               u2451:
  5926  0582                     	goto	l1882
  5927  0582  2DB5               u2450:
  5928  0583                     	line	141
  5929                           	
  5930                           l1876:	
  5931  0583                     	movlw	0FFh
  5932  0583  30FF               	andwf	(___fldiv@grs)^080h,w
  5933  0584  0527               	bcf	status, 5	;RP0=0, select bank0
  5934  0585  1283               	bcf	status, 6	;RP1=0, select bank0
  5935  0586  1303               	movwf	(??___fldiv+0)+0
  5936  0587  00E8               	movlw	0FFh
  5937  0588  30FF               	bsf	status, 5	;RP0=1, select bank1
  5938  0589  1683               	bcf	status, 6	;RP1=0, select bank1
  5939  058A  1303               	andwf	(___fldiv@grs+1)^080h,w
  5940  058B  0528               	bcf	status, 5	;RP0=0, select bank0
  5941  058C  1283               	bcf	status, 6	;RP1=0, select bank0
  5942  058D  1303               	movwf	((??___fldiv+0)+0+1)
  5943  058E  00E9               	movlw	0FFh
  5944  058F  30FF               	bsf	status, 5	;RP0=1, select bank1
  5945  0590  1683               	bcf	status, 6	;RP1=0, select bank1
  5946  0591  1303               	andwf	(___fldiv@grs+2)^080h,w
  5947  0592  0529               	bcf	status, 5	;RP0=0, select bank0
  5948  0593  1283               	bcf	status, 6	;RP1=0, select bank0
  5949  0594  1303               	movwf	((??___fldiv+0)+0+2)
  5950  0595  00EA               	movlw	07Fh
  5951  0596  307F               	bsf	status, 5	;RP0=1, select bank1
  5952  0597  1683               	bcf	status, 6	;RP1=0, select bank1
  5953  0598  1303               	andwf	(___fldiv@grs+3)^080h,w
  5954  0599  052A               	bcf	status, 5	;RP0=0, select bank0
  5955  059A  1283               	bcf	status, 6	;RP1=0, select bank0
  5956  059B  1303               	movwf	((??___fldiv+0)+0+3)
  5957  059C  00EB               	movf	3+(??___fldiv+0)+0,w
  5958  059D  086B               	iorwf	2+(??___fldiv+0)+0,w
  5959  059E  046A               	iorwf	1+(??___fldiv+0)+0,w
  5960  059F  0469               	iorwf	0+(??___fldiv+0)+0,w
  5961  05A0  0468               	skipnz
  5962  05A1  1903               	goto	u2461
  5963  05A2  2DA4               	goto	u2460
  5964  05A3  2DA5               u2461:
  5965  05A4                     	goto	l604
  5966  05A4  2DAA               u2460:
  5967  05A5                     	line	142
  5968                           	
  5969                           l1878:	
  5970  05A5                     	bsf	status, 5	;RP0=1, select bank1
  5971  05A5  1683               	bcf	status, 6	;RP1=0, select bank1
  5972  05A6  1303               	clrf	(___fldiv@aexp)^080h
  5973  05A7  01AC               	incf	(___fldiv@aexp)^080h,f
  5974  05A8  0AAC               	line	143
  5975                           	goto	l1882
  5976  05A9  2DB5               	line	144
  5977                           	
  5978                           l604:	
  5979  05AA                     	line	145
  5980                           	btfss	(___fldiv@b),(0)&7
  5981  05AA  1C64               	goto	u2471
  5982  05AB  2DAD               	goto	u2470
  5983  05AC  2DAE               u2471:
  5984  05AD                     	goto	l1882
  5985  05AD  2DB5               u2470:
  5986  05AE                     	line	146
  5987                           	
  5988                           l1880:	
  5989  05AE                     	bsf	status, 5	;RP0=1, select bank1
  5990  05AE  1683               	bcf	status, 6	;RP1=0, select bank1
  5991  05AF  1303               	clrf	(___fldiv@aexp)^080h
  5992  05B0  01AC               	incf	(___fldiv@aexp)^080h,f
  5993  05B1  0AAC               	goto	l1882
  5994  05B2  2DB5               	line	147
  5995                           	
  5996                           l606:	
  5997  05B3                     	goto	l1882
  5998  05B3  2DB5               	line	148
  5999                           	
  6000                           l605:	
  6001  05B4                     	goto	l1882
  6002  05B4  2DB5               	line	149
  6003                           	
  6004                           l603:	
  6005  05B5                     	line	150
  6006                           	
  6007                           l1882:	
  6008  05B5                     	bsf	status, 5	;RP0=1, select bank1
  6009  05B5  1683               	bcf	status, 6	;RP1=0, select bank1
  6010  05B6  1303               	movf	((___fldiv@aexp)^080h),w
  6011  05B7  082C               	btfsc	status,2
  6012  05B8  1903               	goto	u2481
  6013  05B9  2DBB               	goto	u2480
  6014  05BA  2DBC               u2481:
  6015  05BB                     	goto	l1892
  6016  05BB  2DF3               u2480:
  6017  05BC                     	line	151
  6018                           	
  6019                           l1884:	
  6020  05BC                     	movlw	01h
  6021  05BC  3001               	bcf	status, 5	;RP0=0, select bank0
  6022  05BD  1283               	bcf	status, 6	;RP1=0, select bank0
  6023  05BE  1303               	addwf	(___fldiv@b),f
  6024  05BF  07E4               	movlw	0
  6025  05C0  3000               	skipnc
  6026  05C1  1803               movlw 1
  6027  05C2  3001               	addwf	(___fldiv@b+1),f
  6028  05C3  07E5               	movlw	0
  6029  05C4  3000               	skipnc
  6030  05C5  1803               movlw 1
  6031  05C6  3001               	addwf	(___fldiv@b+2),f
  6032  05C7  07E6               	movlw	0
  6033  05C8  3000               	skipnc
  6034  05C9  1803               movlw 1
  6035  05CA  3001               	addwf	(___fldiv@b+3),f
  6036  05CB  07E7               	line	152
  6037                           	
  6038                           l1886:	
  6039  05CC                     	btfss	(___fldiv@b+3),(24)&7
  6040  05CC  1C67               	goto	u2491
  6041  05CD  2DCF               	goto	u2490
  6042  05CE  2DD0               u2491:
  6043  05CF                     	goto	l1892
  6044  05CF  2DF3               u2490:
  6045  05D0                     	line	153
  6046                           	
  6047                           l1888:	
  6048  05D0                     	movf	(___fldiv@b),w
  6049  05D0  0864               	movwf	(??___fldiv+0)+0
  6050  05D1  00E8               	movf	(___fldiv@b+1),w
  6051  05D2  0865               	movwf	((??___fldiv+0)+0+1)
  6052  05D3  00E9               	movf	(___fldiv@b+2),w
  6053  05D4  0866               	movwf	((??___fldiv+0)+0+2)
  6054  05D5  00EA               	movf	(___fldiv@b+3),w
  6055  05D6  0867               	movwf	((??___fldiv+0)+0+3)
  6056  05D7  00EB               	movlw	01h
  6057  05D8  3001               	movwf	(??___fldiv+4)+0
  6058  05D9  00EC               u2505:
  6059  05DA                     	rlf	(??___fldiv+0)+3,w
  6060  05DA  0D6B               	rrf	(??___fldiv+0)+3,f
  6061  05DB  0CEB               	rrf	(??___fldiv+0)+2,f
  6062  05DC  0CEA               	rrf	(??___fldiv+0)+1,f
  6063  05DD  0CE9               	rrf	(??___fldiv+0)+0,f
  6064  05DE  0CE8               u2500:
  6065  05DF                     	decfsz	(??___fldiv+4)+0,f
  6066  05DF  0BEC               	goto	u2505
  6067  05E0  2DDA               	movf	3+(??___fldiv+0)+0,w
  6068  05E1  086B               	movwf	(___fldiv@b+3)
  6069  05E2  00E7               	movf	2+(??___fldiv+0)+0,w
  6070  05E3  086A               	movwf	(___fldiv@b+2)
  6071  05E4  00E6               	movf	1+(??___fldiv+0)+0,w
  6072  05E5  0869               	movwf	(___fldiv@b+1)
  6073  05E6  00E5               	movf	0+(??___fldiv+0)+0,w
  6074  05E7  0868               	movwf	(___fldiv@b)
  6075  05E8  00E4               
  6076                           	line	154
  6077                           	
  6078                           l1890:	
  6079  05E9                     	movlw	01h
  6080  05E9  3001               	bsf	status, 5	;RP0=1, select bank1
  6081  05EA  1683               	bcf	status, 6	;RP1=0, select bank1
  6082  05EB  1303               	addwf	(___fldiv@new_exp)^080h,f
  6083  05EC  07A5               	skipnc
  6084  05ED  1803               	incf	(___fldiv@new_exp+1)^080h,f
  6085  05EE  0AA6               	movlw	0
  6086  05EF  3000               	addwf	(___fldiv@new_exp+1)^080h,f
  6087  05F0  07A6               	goto	l1892
  6088  05F1  2DF3               	line	155
  6089                           	
  6090                           l608:	
  6091  05F2                     	goto	l1892
  6092  05F2  2DF3               	line	156
  6093                           	
  6094                           l607:	
  6095  05F3                     	line	159
  6096                           	
  6097                           l1892:	
  6098  05F3                     	bsf	status, 5	;RP0=1, select bank1
  6099  05F3  1683               	bcf	status, 6	;RP1=0, select bank1
  6100  05F4  1303               	movf	(___fldiv@new_exp+1)^080h,w
  6101  05F5  0826               	xorlw	80h
  6102  05F6  3A80               	movwf	btemp+1
  6103  05F7  00FF               	movlw	(0)^80h
  6104  05F8  3080               	subwf	btemp+1,w
  6105  05F9  027F               	skipz
  6106  05FA  1D03               	goto	u2515
  6107  05FB  2DFE               	movlw	0FFh
  6108  05FC  30FF               	subwf	(___fldiv@new_exp)^080h,w
  6109  05FD  0225               u2515:
  6110  05FE                     
  6111                           	skipc
  6112  05FE  1C03               	goto	u2511
  6113  05FF  2E01               	goto	u2510
  6114  0600  2E02               u2511:
  6115  0601                     	goto	l1896
  6116  0601  2E13               u2510:
  6117  0602                     	line	160
  6118                           	
  6119                           l1894:	
  6120  0602                     	movlw	0FFh
  6121  0602  30FF               	bsf	status, 5	;RP0=1, select bank1
  6122  0603  1683               	bcf	status, 6	;RP1=0, select bank1
  6123  0604  1303               	movwf	(___fldiv@new_exp)^080h
  6124  0605  00A5               	movlw	0
  6125  0606  3000               	movwf	((___fldiv@new_exp)^080h)+1
  6126  0607  00A6               	line	161
  6127                           	movlw	high highword(0)
  6128  0608  3000               	bcf	status, 5	;RP0=0, select bank0
  6129  0609  1283               	bcf	status, 6	;RP1=0, select bank0
  6130  060A  1303               	movwf	(___fldiv@b+3)
  6131  060B  00E7               	movlw	low highword(0)
  6132  060C  3000               	movwf	(___fldiv@b+2)
  6133  060D  00E6               	movlw	high(0)
  6134  060E  3000               	movwf	(___fldiv@b+1)
  6135  060F  00E5               	movlw	low(0)
  6136  0610  3000               	movwf	(___fldiv@b)
  6137  0611  00E4               
  6138                           	goto	l1896
  6139  0612  2E13               	line	162
  6140                           	
  6141                           l609:	
  6142  0613                     	line	165
  6143                           	
  6144                           l1896:	
  6145  0613                     	bsf	status, 5	;RP0=1, select bank1
  6146  0613  1683               	bcf	status, 6	;RP1=0, select bank1
  6147  0614  1303               	movf	(___fldiv@new_exp+1)^080h,w
  6148  0615  0826               	xorlw	80h
  6149  0616  3A80               	movwf	btemp+1
  6150  0617  00FF               	movlw	(0)^80h
  6151  0618  3080               	subwf	btemp+1,w
  6152  0619  027F               	skipz
  6153  061A  1D03               	goto	u2525
  6154  061B  2E1E               	movlw	01h
  6155  061C  3001               	subwf	(___fldiv@new_exp)^080h,w
  6156  061D  0225               u2525:
  6157  061E                     
  6158                           	skipnc
  6159  061E  1803               	goto	u2521
  6160  061F  2E21               	goto	u2520
  6161  0620  2E22               u2521:
  6162  0621                     	goto	l610
  6163  0621  2E33               u2520:
  6164  0622                     	line	166
  6165                           	
  6166                           l1898:	
  6167  0622                     	bsf	status, 5	;RP0=1, select bank1
  6168  0622  1683               	bcf	status, 6	;RP1=0, select bank1
  6169  0623  1303               	clrf	(___fldiv@new_exp)^080h
  6170  0624  01A5               	clrf	(___fldiv@new_exp+1)^080h
  6171  0625  01A6               	line	167
  6172                           	
  6173                           l1900:	
  6174  0626                     	movlw	high highword(0)
  6175  0626  3000               	bcf	status, 5	;RP0=0, select bank0
  6176  0627  1283               	bcf	status, 6	;RP1=0, select bank0
  6177  0628  1303               	movwf	(___fldiv@b+3)
  6178  0629  00E7               	movlw	low highword(0)
  6179  062A  3000               	movwf	(___fldiv@b+2)
  6180  062B  00E6               	movlw	high(0)
  6181  062C  3000               	movwf	(___fldiv@b+1)
  6182  062D  00E5               	movlw	low(0)
  6183  062E  3000               	movwf	(___fldiv@b)
  6184  062F  00E4               
  6185                           	line	169
  6186                           	
  6187                           l1902:	
  6188  0630                     	bsf	status, 5	;RP0=1, select bank1
  6189  0630  1683               	bcf	status, 6	;RP1=0, select bank1
  6190  0631  1303               	clrf	(___fldiv@sign)^080h
  6191  0632  01A4               	line	170
  6192                           	
  6193                           l610:	
  6194  0633                     	line	173
  6195                           	bsf	status, 5	;RP0=1, select bank1
  6196  0633  1683               	bcf	status, 6	;RP1=0, select bank1
  6197  0634  1303               	movf	(___fldiv@new_exp)^080h,w
  6198  0635  0825               	bcf	status, 5	;RP0=0, select bank0
  6199  0636  1283               	bcf	status, 6	;RP1=0, select bank0
  6200  0637  1303               	movwf	(??___fldiv+0)+0
  6201  0638  00E8               	movf	(??___fldiv+0)+0,w
  6202  0639  0868               	bsf	status, 5	;RP0=1, select bank1
  6203  063A  1683               	bcf	status, 6	;RP1=0, select bank1
  6204  063B  1303               	movwf	(___fldiv@bexp)^080h
  6205  063C  00AB               	line	175
  6206                           	
  6207                           l1904:	
  6208  063D                     	btfss	(___fldiv@bexp)^080h,(0)&7
  6209  063D  1C2B               	goto	u2531
  6210  063E  2E40               	goto	u2530
  6211  063F  2E41               u2531:
  6212  0640                     	goto	l1908
  6213  0640  2E45               u2530:
  6214  0641                     	line	176
  6215                           	
  6216                           l1906:	
  6217  0641                     	bcf	status, 5	;RP0=0, select bank0
  6218  0641  1283               	bcf	status, 6	;RP1=0, select bank0
  6219  0642  1303               	bsf	0+(___fldiv@b)+02h+(7/8),(7)&7
  6220  0643  17E6               	line	177
  6221                           	goto	l612
  6222  0644  2E4A               	line	179
  6223                           	
  6224                           l611:	
  6225  0645                     	line	180
  6226                           	
  6227                           l1908:	
  6228  0645                     	movlw	low(07Fh)
  6229  0645  307F               	bcf	status, 5	;RP0=0, select bank0
  6230  0646  1283               	movwf	(??___fldiv+0)+0
  6231  0647  00E8               	movf	(??___fldiv+0)+0,w
  6232  0648  0868               	andwf	0+(___fldiv@b)+02h,f
  6233  0649  05E6               	line	181
  6234                           	
  6235                           l612:	
  6236  064A                     	line	182
  6237                           	bsf	status, 5	;RP0=1, select bank1
  6238  064A  1683               	bcf	status, 6	;RP1=0, select bank1
  6239  064B  1303               	movf	(___fldiv@bexp)^080h,w
  6240  064C  082B               	bcf	status, 5	;RP0=0, select bank0
  6241  064D  1283               	bcf	status, 6	;RP1=0, select bank0
  6242  064E  1303               	movwf	(??___fldiv+0)+0
  6243  064F  00E8               	clrc
  6244  0650  1003               	rrf	(??___fldiv+0)+0,w
  6245  0651  0C68               	movwf	(??___fldiv+1)+0
  6246  0652  00E9               	movf	(??___fldiv+1)+0,w
  6247  0653  0869               	movwf	0+(___fldiv@b)+03h
  6248  0654  00E7               	line	183
  6249                           	bsf	status, 5	;RP0=1, select bank1
  6250  0655  1683               	bcf	status, 6	;RP1=0, select bank1
  6251  0656  1303               	movf	(___fldiv@sign)^080h,w
  6252  0657  0824               	bcf	status, 5	;RP0=0, select bank0
  6253  0658  1283               	bcf	status, 6	;RP1=0, select bank0
  6254  0659  1303               	movwf	(??___fldiv+0)+0
  6255  065A  00E8               	movf	(??___fldiv+0)+0,w
  6256  065B  0868               	iorwf	0+(___fldiv@b)+03h,f
  6257  065C  04E7               	line	184
  6258                           	
  6259                           l1910:	
  6260  065D                     	movf	(___fldiv@b+3),w
  6261  065D  0867               	movwf	(?___fldiv+3)
  6262  065E  00E3               	movf	(___fldiv@b+2),w
  6263  065F  0866               	movwf	(?___fldiv+2)
  6264  0660  00E2               	movf	(___fldiv@b+1),w
  6265  0661  0865               	movwf	(?___fldiv+1)
  6266  0662  00E1               	movf	(___fldiv@b),w
  6267  0663  0864               	movwf	(?___fldiv)
  6268  0664  00E0               
  6269                           	goto	l590
  6270  0665  2E66               	
  6271                           l1912:	
  6272  0666                     	line	185
  6273                           	
  6274                           l590:	
  6275  0666                     	return
  6276  0666  0008               	opt stack 0
  6277                           GLOBAL	__end_of___fldiv
  6278                           	__end_of___fldiv:
  6279  0667                     	signat	___fldiv,8316
  6280                           	global	___fladd
  6281                           
  6282 ;; *************** function ___fladd *****************
  6283 ;; Defined at:
  6284 ;;		line 10 in file "C:\Program Files (x86)\Microchip\xc8\v2.00\pic\sources\c90\common\sprcadd.c"
  6285 ;; Parameters:    Size  Location     Type
  6286 ;;  b               4   14[BANK0 ] unsigned char 
  6287 ;;  a               4   18[BANK0 ] unsigned char 
  6288 ;; Auto vars:     Size  Location     Type
  6289 ;;  grs             1   37[BANK0 ] unsigned char 
  6290 ;;  bexp            1   36[BANK0 ] unsigned char 
  6291 ;;  aexp            1   35[BANK0 ] unsigned char 
  6292 ;;  signs           1   34[BANK0 ] unsigned char 
  6293 ;; Return value:  Size  Location     Type
  6294 ;;                  4   14[BANK0 ] unsigned char 
  6295 ;; Registers used:
  6296 ;;		wreg, status,2, status,0, btemp+1
  6297 ;; Tracked objects:
  6298 ;;		On entry : 0/0
  6299 ;;		On exit  : 0/0
  6300 ;;		Unchanged: 0/0
  6301 ;; Data sizes:     COMMON   BANK0   BANK1   BANK3   BANK2
  6302 ;;      Params:         0       8       0       0       0
  6303 ;;      Locals:         0       4       0       0       0
  6304 ;;      Temps:          0      12       0       0       0
  6305 ;;      Totals:         0      24       0       0       0
  6306 ;;Total ram usage:       24 bytes
  6307 ;; Hardware stack levels used:    1
  6308 ;; Hardware stack levels required when called:    1
  6309 ;; This function calls:
  6310 ;;		Nothing
  6311 ;; This function is called by:
  6312 ;;		_main
  6313 ;; This function uses a non-reentrant model
  6314 ;;
  6315                           psect	text14,local,class=CODE,delta=2,merge=1,group=1
  6316                           	file	"C:\Program Files (x86)\Microchip\xc8\v2.00\pic\sources\c90\common\sprcadd.c"
  6317                           	line	10
  6318                           global __ptext14
  6319                           __ptext14:	;psect for function ___fladd
  6320  0D44                     psect	text14
  6321                           	file	"C:\Program Files (x86)\Microchip\xc8\v2.00\pic\sources\c90\common\sprcadd.c"
  6322                           	line	10
  6323                           	global	__size_of___fladd
  6324                           	__size_of___fladd	equ	__end_of___fladd-___fladd
  6325  02BC                     	
  6326                           ___fladd:	
  6327  0D44                     ;incstack = 0
  6328                           	opt	stack 6
  6329                           ; Regs used in ___fladd: [wreg+status,2+status,0+btemp+1]
  6330                           	line	21
  6331                           	
  6332                           l1578:	
  6333  0D44                     	bcf	status, 5	;RP0=0, select bank0
  6334  0D44  1283               	bcf	status, 6	;RP1=0, select bank0
  6335  0D45  1303               	movf	0+(___fladd@b)+03h,w
  6336  0D46  0831               	andlw	080h
  6337  0D47  3980               	movwf	(??___fladd+0)+0
  6338  0D48  00B6               	movf	(??___fladd+0)+0,w
  6339  0D49  0836               	movwf	(___fladd@signs)
  6340  0D4A  00C2               	line	22
  6341                           	
  6342                           l1580:	
  6343  0D4B                     	movf	0+(___fladd@b)+03h,w
  6344  0D4B  0831               	movwf	(??___fladd+0)+0
  6345  0D4C  00B6               	addwf	(??___fladd+0)+0,w
  6346  0D4D  0736               	movwf	(??___fladd+1)+0
  6347  0D4E  00B7               	movf	(??___fladd+1)+0,w
  6348  0D4F  0837               	movwf	(___fladd@bexp)
  6349  0D50  00C4               	line	23
  6350                           	
  6351                           l1582:	
  6352  0D51                     	btfss	0+(___fladd@b)+02h,(7)&7
  6353  0D51  1FB0               	goto	u1781
  6354  0D52  2D54               	goto	u1780
  6355  0D53  2D55               u1781:
  6356  0D54                     	goto	l1586
  6357  0D54  2D57               u1780:
  6358  0D55                     	line	24
  6359                           	
  6360                           l1584:	
  6361  0D55                     	bsf	(___fladd@bexp)+(0/8),(0)&7
  6362  0D55  1444               	goto	l1586
  6363  0D56  2D57               	line	25
  6364                           	
  6365                           l524:	
  6366  0D57                     	line	28
  6367                           	
  6368                           l1586:	
  6369  0D57                     	movf	((___fladd@bexp)),w
  6370  0D57  0844               	btfsc	status,2
  6371  0D58  1903               	goto	u1791
  6372  0D59  2D5B               	goto	u1790
  6373  0D5A  2D5C               u1791:
  6374  0D5B                     	goto	l1596
  6375  0D5B  2D6D               u1790:
  6376  0D5C                     	line	30
  6377                           	
  6378                           l1588:	
  6379  0D5C                     		incf	((___fladd@bexp)),w
  6380  0D5C  0A44               	btfss	status,2
  6381  0D5D  1D03               	goto	u1801
  6382  0D5E  2D60               	goto	u1800
  6383  0D5F  2D61               u1801:
  6384  0D60                     	goto	l1592
  6385  0D60  2D6A               u1800:
  6386  0D61                     	line	32
  6387                           	
  6388                           l1590:	
  6389  0D61                     	movlw	0x0
  6390  0D61  3000               	movwf	(___fladd@b+3)
  6391  0D62  00B1               	movlw	0x0
  6392  0D63  3000               	movwf	(___fladd@b+2)
  6393  0D64  00B0               	movlw	0x0
  6394  0D65  3000               	movwf	(___fladd@b+1)
  6395  0D66  00AF               	movlw	0x0
  6396  0D67  3000               	movwf	(___fladd@b)
  6397  0D68  00AE               
  6398                           	goto	l1592
  6399  0D69  2D6A               	line	33
  6400                           	
  6401                           l526:	
  6402  0D6A                     	line	35
  6403                           	
  6404                           l1592:	
  6405  0D6A                     	bsf	(___fladd@b)+(23/8),(23)&7
  6406  0D6A  17B0               	line	37
  6407                           	
  6408                           l1594:	
  6409  0D6B                     	clrf	0+(___fladd@b)+03h
  6410  0D6B  01B1               	line	38
  6411                           	goto	l1598
  6412  0D6C  2D76               	line	39
  6413                           	
  6414                           l525:	
  6415  0D6D                     	line	41
  6416                           	
  6417                           l1596:	
  6418  0D6D                     	movlw	0x0
  6419  0D6D  3000               	movwf	(___fladd@b+3)
  6420  0D6E  00B1               	movlw	0x0
  6421  0D6F  3000               	movwf	(___fladd@b+2)
  6422  0D70  00B0               	movlw	0x0
  6423  0D71  3000               	movwf	(___fladd@b+1)
  6424  0D72  00AF               	movlw	0x0
  6425  0D73  3000               	movwf	(___fladd@b)
  6426  0D74  00AE               
  6427                           	goto	l1598
  6428  0D75  2D76               	line	42
  6429                           	
  6430                           l527:	
  6431  0D76                     	line	44
  6432                           	
  6433                           l1598:	
  6434  0D76                     	movf	0+(___fladd@a)+03h,w
  6435  0D76  0835               	andlw	080h
  6436  0D77  3980               	movwf	(??___fladd+0)+0
  6437  0D78  00B6               	movf	(??___fladd+0)+0,w
  6438  0D79  0836               	movwf	(___fladd@aexp)
  6439  0D7A  00C3               	line	46
  6440                           	
  6441                           l1600:	
  6442  0D7B                     	movf	(___fladd@aexp),w
  6443  0D7B  0843               	xorwf	(___fladd@signs),w
  6444  0D7C  0642               	skipnz
  6445  0D7D  1903               	goto	u1811
  6446  0D7E  2D80               	goto	u1810
  6447  0D7F  2D81               u1811:
  6448  0D80                     	goto	l1604
  6449  0D80  2D83               u1810:
  6450  0D81                     	line	47
  6451                           	
  6452                           l1602:	
  6453  0D81                     	bsf	(___fladd@signs)+(6/8),(6)&7
  6454  0D81  1742               	goto	l1604
  6455  0D82  2D83               	line	48
  6456                           	
  6457                           l528:	
  6458  0D83                     	line	49
  6459                           	
  6460                           l1604:	
  6461  0D83                     	movf	0+(___fladd@a)+03h,w
  6462  0D83  0835               	movwf	(??___fladd+0)+0
  6463  0D84  00B6               	addwf	(??___fladd+0)+0,w
  6464  0D85  0736               	movwf	(??___fladd+1)+0
  6465  0D86  00B7               	movf	(??___fladd+1)+0,w
  6466  0D87  0837               	movwf	(___fladd@aexp)
  6467  0D88  00C3               	line	50
  6468                           	
  6469                           l1606:	
  6470  0D89                     	btfss	0+(___fladd@a)+02h,(7)&7
  6471  0D89  1FB4               	goto	u1821
  6472  0D8A  2D8C               	goto	u1820
  6473  0D8B  2D8D               u1821:
  6474  0D8C                     	goto	l1610
  6475  0D8C  2D8F               u1820:
  6476  0D8D                     	line	51
  6477                           	
  6478                           l1608:	
  6479  0D8D                     	bsf	(___fladd@aexp)+(0/8),(0)&7
  6480  0D8D  1443               	goto	l1610
  6481  0D8E  2D8F               	line	52
  6482                           	
  6483                           l529:	
  6484  0D8F                     	line	55
  6485                           	
  6486                           l1610:	
  6487  0D8F                     	movf	((___fladd@aexp)),w
  6488  0D8F  0843               	btfsc	status,2
  6489  0D90  1903               	goto	u1831
  6490  0D91  2D93               	goto	u1830
  6491  0D92  2D94               u1831:
  6492  0D93                     	goto	l1620
  6493  0D93  2DA5               u1830:
  6494  0D94                     	line	57
  6495                           	
  6496                           l1612:	
  6497  0D94                     		incf	((___fladd@aexp)),w
  6498  0D94  0A43               	btfss	status,2
  6499  0D95  1D03               	goto	u1841
  6500  0D96  2D98               	goto	u1840
  6501  0D97  2D99               u1841:
  6502  0D98                     	goto	l1616
  6503  0D98  2DA2               u1840:
  6504  0D99                     	line	59
  6505                           	
  6506                           l1614:	
  6507  0D99                     	movlw	0x0
  6508  0D99  3000               	movwf	(___fladd@a+3)
  6509  0D9A  00B5               	movlw	0x0
  6510  0D9B  3000               	movwf	(___fladd@a+2)
  6511  0D9C  00B4               	movlw	0x0
  6512  0D9D  3000               	movwf	(___fladd@a+1)
  6513  0D9E  00B3               	movlw	0x0
  6514  0D9F  3000               	movwf	(___fladd@a)
  6515  0DA0  00B2               
  6516                           	goto	l1616
  6517  0DA1  2DA2               	line	60
  6518                           	
  6519                           l531:	
  6520  0DA2                     	line	62
  6521                           	
  6522                           l1616:	
  6523  0DA2                     	bsf	(___fladd@a)+(23/8),(23)&7
  6524  0DA2  17B4               	line	64
  6525                           	
  6526                           l1618:	
  6527  0DA3                     	clrf	0+(___fladd@a)+03h
  6528  0DA3  01B5               	line	65
  6529                           	goto	l532
  6530  0DA4  2DAD               	line	66
  6531                           	
  6532                           l530:	
  6533  0DA5                     	line	68
  6534                           	
  6535                           l1620:	
  6536  0DA5                     	movlw	0x0
  6537  0DA5  3000               	movwf	(___fladd@a+3)
  6538  0DA6  00B5               	movlw	0x0
  6539  0DA7  3000               	movwf	(___fladd@a+2)
  6540  0DA8  00B4               	movlw	0x0
  6541  0DA9  3000               	movwf	(___fladd@a+1)
  6542  0DAA  00B3               	movlw	0x0
  6543  0DAB  3000               	movwf	(___fladd@a)
  6544  0DAC  00B2               
  6545                           	line	69
  6546                           	
  6547                           l532:	
  6548  0DAD                     	line	75
  6549                           	movf	(___fladd@bexp),w
  6550  0DAD  0844               	subwf	(___fladd@aexp),w
  6551  0DAE  0243               	skipnc
  6552  0DAF  1803               	goto	u1851
  6553  0DB0  2DB2               	goto	u1850
  6554  0DB1  2DB3               u1851:
  6555  0DB2                     	goto	l1656
  6556  0DB2  2DF9               u1850:
  6557  0DB3                     	line	77
  6558                           	
  6559                           l1622:	
  6560  0DB3                     	btfss	(___fladd@signs),(6)&7
  6561  0DB3  1F42               	goto	u1861
  6562  0DB4  2DB6               	goto	u1860
  6563  0DB5  2DB7               u1861:
  6564  0DB6                     	goto	l1626
  6565  0DB6  2DBC               u1860:
  6566  0DB7                     	line	78
  6567                           	
  6568                           l1624:	
  6569  0DB7                     	movlw	low(080h)
  6570  0DB7  3080               	movwf	(??___fladd+0)+0
  6571  0DB8  00B6               	movf	(??___fladd+0)+0,w
  6572  0DB9  0836               	xorwf	(___fladd@signs),f
  6573  0DBA  06C2               	goto	l1626
  6574  0DBB  2DBC               	line	79
  6575                           	
  6576                           l534:	
  6577  0DBC                     	line	81
  6578                           	
  6579                           l1626:	
  6580  0DBC                     	movf	(___fladd@bexp),w
  6581  0DBC  0844               	movwf	(??___fladd+0)+0
  6582  0DBD  00B6               	movf	(??___fladd+0)+0,w
  6583  0DBE  0836               	movwf	(___fladd@grs)
  6584  0DBF  00C5               	line	82
  6585                           	
  6586                           l1628:	
  6587  0DC0                     	movf	(___fladd@aexp),w
  6588  0DC0  0843               	movwf	(??___fladd+0)+0
  6589  0DC1  00B6               	movf	(??___fladd+0)+0,w
  6590  0DC2  0836               	movwf	(___fladd@bexp)
  6591  0DC3  00C4               	line	83
  6592                           	
  6593                           l1630:	
  6594  0DC4                     	movf	(___fladd@grs),w
  6595  0DC4  0845               	movwf	(??___fladd+0)+0
  6596  0DC5  00B6               	movf	(??___fladd+0)+0,w
  6597  0DC6  0836               	movwf	(___fladd@aexp)
  6598  0DC7  00C3               	line	84
  6599                           	
  6600                           l1632:	
  6601  0DC8                     	movf	(___fladd@b),w
  6602  0DC8  082E               	movwf	(??___fladd+0)+0
  6603  0DC9  00B6               	movf	(??___fladd+0)+0,w
  6604  0DCA  0836               	movwf	(___fladd@grs)
  6605  0DCB  00C5               	line	85
  6606                           	
  6607                           l1634:	
  6608  0DCC                     	movf	(___fladd@a),w
  6609  0DCC  0832               	movwf	(??___fladd+0)+0
  6610  0DCD  00B6               	movf	(??___fladd+0)+0,w
  6611  0DCE  0836               	movwf	(___fladd@b)
  6612  0DCF  00AE               	line	86
  6613                           	
  6614                           l1636:	
  6615  0DD0                     	movf	(___fladd@grs),w
  6616  0DD0  0845               	movwf	(??___fladd+0)+0
  6617  0DD1  00B6               	movf	(??___fladd+0)+0,w
  6618  0DD2  0836               	movwf	(___fladd@a)
  6619  0DD3  00B2               	line	87
  6620                           	
  6621                           l1638:	
  6622  0DD4                     	movf	0+(___fladd@b)+01h,w
  6623  0DD4  082F               	movwf	(??___fladd+0)+0
  6624  0DD5  00B6               	movf	(??___fladd+0)+0,w
  6625  0DD6  0836               	movwf	(___fladd@grs)
  6626  0DD7  00C5               	line	88
  6627                           	
  6628                           l1640:	
  6629  0DD8                     	movf	0+(___fladd@a)+01h,w
  6630  0DD8  0833               	movwf	(??___fladd+0)+0
  6631  0DD9  00B6               	movf	(??___fladd+0)+0,w
  6632  0DDA  0836               	movwf	0+(___fladd@b)+01h
  6633  0DDB  00AF               	line	89
  6634                           	
  6635                           l1642:	
  6636  0DDC                     	movf	(___fladd@grs),w
  6637  0DDC  0845               	movwf	(??___fladd+0)+0
  6638  0DDD  00B6               	movf	(??___fladd+0)+0,w
  6639  0DDE  0836               	movwf	0+(___fladd@a)+01h
  6640  0DDF  00B3               	line	90
  6641                           	
  6642                           l1644:	
  6643  0DE0                     	movf	0+(___fladd@b)+02h,w
  6644  0DE0  0830               	movwf	(??___fladd+0)+0
  6645  0DE1  00B6               	movf	(??___fladd+0)+0,w
  6646  0DE2  0836               	movwf	(___fladd@grs)
  6647  0DE3  00C5               	line	91
  6648                           	
  6649                           l1646:	
  6650  0DE4                     	movf	0+(___fladd@a)+02h,w
  6651  0DE4  0834               	movwf	(??___fladd+0)+0
  6652  0DE5  00B6               	movf	(??___fladd+0)+0,w
  6653  0DE6  0836               	movwf	0+(___fladd@b)+02h
  6654  0DE7  00B0               	line	92
  6655                           	
  6656                           l1648:	
  6657  0DE8                     	movf	(___fladd@grs),w
  6658  0DE8  0845               	movwf	(??___fladd+0)+0
  6659  0DE9  00B6               	movf	(??___fladd+0)+0,w
  6660  0DEA  0836               	movwf	0+(___fladd@a)+02h
  6661  0DEB  00B4               	line	93
  6662                           	
  6663                           l1650:	
  6664  0DEC                     	movf	0+(___fladd@b)+03h,w
  6665  0DEC  0831               	movwf	(??___fladd+0)+0
  6666  0DED  00B6               	movf	(??___fladd+0)+0,w
  6667  0DEE  0836               	movwf	(___fladd@grs)
  6668  0DEF  00C5               	line	94
  6669                           	
  6670                           l1652:	
  6671  0DF0                     	movf	0+(___fladd@a)+03h,w
  6672  0DF0  0835               	movwf	(??___fladd+0)+0
  6673  0DF1  00B6               	movf	(??___fladd+0)+0,w
  6674  0DF2  0836               	movwf	0+(___fladd@b)+03h
  6675  0DF3  00B1               	line	95
  6676                           	
  6677                           l1654:	
  6678  0DF4                     	movf	(___fladd@grs),w
  6679  0DF4  0845               	movwf	(??___fladd+0)+0
  6680  0DF5  00B6               	movf	(??___fladd+0)+0,w
  6681  0DF6  0836               	movwf	0+(___fladd@a)+03h
  6682  0DF7  00B5               	goto	l1656
  6683  0DF8  2DF9               	line	96
  6684                           	
  6685                           l533:	
  6686  0DF9                     	line	98
  6687                           	
  6688                           l1656:	
  6689  0DF9                     	clrf	(___fladd@grs)
  6690  0DF9  01C5               	line	100
  6691                           	
  6692                           l1658:	
  6693  0DFA                     	movf	(___fladd@bexp),w
  6694  0DFA  0844               	movwf	(??___fladd+0)+0
  6695  0DFB  00B6               	clrf	(??___fladd+0)+0+1
  6696  0DFC  01B7               	comf	(??___fladd+0)+0,f
  6697  0DFD  09B6               	comf	(??___fladd+0)+1,f
  6698  0DFE  09B7               	incf	(??___fladd+0)+0,f
  6699  0DFF  0AB6               	skipnz
  6700  0E00  1903               	incf	(??___fladd+0)+1,f
  6701  0E01  0AB7               	movf	(___fladd@aexp),w
  6702  0E02  0843               	addwf	0+(??___fladd+0)+0,w
  6703  0E03  0736               	movwf	(??___fladd+2)+0
  6704  0E04  00B8               	movf	1+(??___fladd+0)+0,w
  6705  0E05  0837               	skipnc
  6706  0E06  1803               	incf	1+(??___fladd+0)+0,w
  6707  0E07  0A37               	movwf	((??___fladd+2)+0)+1
  6708  0E08  00B9               	movf	1+(??___fladd+2)+0,w
  6709  0E09  0839               	xorlw	80h
  6710  0E0A  3A80               	movwf	btemp+1
  6711  0E0B  00FF               	movlw	(0)^80h
  6712  0E0C  3080               	subwf	btemp+1,w
  6713  0E0D  027F               	skipz
  6714  0E0E  1D03               	goto	u1875
  6715  0E0F  2E12               	movlw	01Ah
  6716  0E10  301A               	subwf	0+(??___fladd+2)+0,w
  6717  0E11  0238               u1875:
  6718  0E12                     
  6719                           	skipc
  6720  0E12  1C03               	goto	u1871
  6721  0E13  2E15               	goto	u1870
  6722  0E14  2E16               u1871:
  6723  0E15                     	goto	l1674
  6724  0E15  2E57               u1870:
  6725  0E16                     	line	101
  6726                           	
  6727                           l1660:	
  6728  0E16                     	bcf	status, 5	;RP0=0, select bank0
  6729  0E16  1283               	bcf	status, 6	;RP1=0, select bank0
  6730  0E17  1303               	movf	(___fladd@b+3),w
  6731  0E18  0831               	iorwf	(___fladd@b+2),w
  6732  0E19  0430               	iorwf	(___fladd@b+1),w
  6733  0E1A  042F               	iorwf	(___fladd@b),w
  6734  0E1B  042E               	skipz
  6735  0E1C  1D03               	goto	u1881
  6736  0E1D  2E1F               	goto	u1880
  6737  0E1E  2E21               u1881:
  6738  0E1F                     	movlw	1
  6739  0E1F  3001               	goto	u1890
  6740  0E20  2E22               u1880:
  6741  0E21                     	movlw	0
  6742  0E21  3000               u1890:
  6743  0E22                     	movwf	(??___fladd+0)+0
  6744  0E22  00B6               	movf	(??___fladd+0)+0,w
  6745  0E23  0836               	movwf	(___fladd@grs)
  6746  0E24  00C5               	line	102
  6747                           	movlw	high highword(0)
  6748  0E25  3000               	movwf	(___fladd@b+3)
  6749  0E26  00B1               	movlw	low highword(0)
  6750  0E27  3000               	movwf	(___fladd@b+2)
  6751  0E28  00B0               	movlw	high(0)
  6752  0E29  3000               	movwf	(___fladd@b+1)
  6753  0E2A  00AF               	movlw	low(0)
  6754  0E2B  3000               	movwf	(___fladd@b)
  6755  0E2C  00AE               
  6756                           	line	103
  6757                           	movf	(___fladd@aexp),w
  6758  0E2D  0843               	movwf	(??___fladd+0)+0
  6759  0E2E  00B6               	movf	(??___fladd+0)+0,w
  6760  0E2F  0836               	movwf	(___fladd@bexp)
  6761  0E30  00C4               	line	104
  6762                           	goto	l536
  6763  0E31  2E60               	line	105
  6764                           	
  6765                           l535:	
  6766  0E32                     	line	106
  6767                           	goto	l1674
  6768  0E32  2E57               	
  6769                           l538:	
  6770  0E33                     	line	109
  6771                           	btfss	(___fladd@grs),(0)&7
  6772  0E33  1C45               	goto	u1901
  6773  0E34  2E36               	goto	u1900
  6774  0E35  2E37               u1901:
  6775  0E36                     	goto	l1664
  6776  0E36  2E40               u1900:
  6777  0E37                     	line	110
  6778                           	
  6779                           l1662:	
  6780  0E37                     	movf	(___fladd@grs),w
  6781  0E37  0845               	movwf	(??___fladd+0)+0
  6782  0E38  00B6               	clrc
  6783  0E39  1003               	rrf	(??___fladd+0)+0,w
  6784  0E3A  0C36               	iorlw	01h
  6785  0E3B  3801               	movwf	(??___fladd+1)+0
  6786  0E3C  00B7               	movf	(??___fladd+1)+0,w
  6787  0E3D  0837               	movwf	(___fladd@grs)
  6788  0E3E  00C5               	line	111
  6789                           	goto	l1666
  6790  0E3F  2E43               	line	112
  6791                           	
  6792                           l539:	
  6793  0E40                     	line	113
  6794                           	
  6795                           l1664:	
  6796  0E40                     	clrc
  6797  0E40  1003               	rrf	(___fladd@grs),f
  6798  0E41  0CC5               
  6799                           	goto	l1666
  6800  0E42  2E43               	line	114
  6801                           	
  6802                           l540:	
  6803  0E43                     	line	115
  6804                           	
  6805                           l1666:	
  6806  0E43                     	btfss	(___fladd@b),(0)&7
  6807  0E43  1C2E               	goto	u1911
  6808  0E44  2E46               	goto	u1910
  6809  0E45  2E47               u1911:
  6810  0E46                     	goto	l1670
  6811  0E46  2E49               u1910:
  6812  0E47                     	line	116
  6813                           	
  6814                           l1668:	
  6815  0E47                     	bsf	(___fladd@grs)+(7/8),(7)&7
  6816  0E47  17C5               	goto	l1670
  6817  0E48  2E49               	line	117
  6818                           	
  6819                           l541:	
  6820  0E49                     	line	118
  6821                           	
  6822                           l1670:	
  6823  0E49                     	movlw	01h
  6824  0E49  3001               	movwf	(??___fladd+0)+0
  6825  0E4A  00B6               u1925:
  6826  0E4B                     	rlf	(___fladd@b+3),w
  6827  0E4B  0D31               	rrf	(___fladd@b+3),f
  6828  0E4C  0CB1               	rrf	(___fladd@b+2),f
  6829  0E4D  0CB0               	rrf	(___fladd@b+1),f
  6830  0E4E  0CAF               	rrf	(___fladd@b),f
  6831  0E4F  0CAE               	decfsz	(??___fladd+0)+0&07fh,f
  6832  0E50  0BB6               	goto	u1925
  6833  0E51  2E4B               
  6834                           	line	119
  6835                           	
  6836                           l1672:	
  6837  0E52                     	movlw	low(01h)
  6838  0E52  3001               	movwf	(??___fladd+0)+0
  6839  0E53  00B6               	movf	(??___fladd+0)+0,w
  6840  0E54  0836               	addwf	(___fladd@bexp),f
  6841  0E55  07C4               	goto	l1674
  6842  0E56  2E57               	line	120
  6843                           	
  6844                           l537:	
  6845  0E57                     	line	106
  6846                           	
  6847                           l1674:	
  6848  0E57                     	bcf	status, 5	;RP0=0, select bank0
  6849  0E57  1283               	bcf	status, 6	;RP1=0, select bank0
  6850  0E58  1303               	movf	(___fladd@aexp),w
  6851  0E59  0843               	subwf	(___fladd@bexp),w
  6852  0E5A  0244               	skipc
  6853  0E5B  1C03               	goto	u1931
  6854  0E5C  2E5E               	goto	u1930
  6855  0E5D  2E5F               u1931:
  6856  0E5E                     	goto	l538
  6857  0E5E  2E33               u1930:
  6858  0E5F                     	goto	l536
  6859  0E5F  2E60               	
  6860                           l542:	
  6861  0E60                     	line	121
  6862                           	
  6863                           l536:	
  6864  0E60                     	line	124
  6865                           	btfsc	(___fladd@signs),(6)&7
  6866  0E60  1B42               	goto	u1941
  6867  0E61  2E63               	goto	u1940
  6868  0E62  2E64               u1941:
  6869  0E63                     	goto	l1700
  6870  0E63  2EB3               u1940:
  6871  0E64                     	line	127
  6872                           	
  6873                           l1676:	
  6874  0E64                     	movf	((___fladd@bexp)),w
  6875  0E64  0844               	btfss	status,2
  6876  0E65  1D03               	goto	u1951
  6877  0E66  2E68               	goto	u1950
  6878  0E67  2E69               u1951:
  6879  0E68                     	goto	l1682
  6880  0E68  2E73               u1950:
  6881  0E69                     	line	128
  6882                           	
  6883                           l1678:	
  6884  0E69                     	movlw	0x0
  6885  0E69  3000               	movwf	(?___fladd+3)
  6886  0E6A  00B1               	movlw	0x0
  6887  0E6B  3000               	movwf	(?___fladd+2)
  6888  0E6C  00B0               	movlw	0x0
  6889  0E6D  3000               	movwf	(?___fladd+1)
  6890  0E6E  00AF               	movlw	0x0
  6891  0E6F  3000               	movwf	(?___fladd)
  6892  0E70  00AE               
  6893                           	goto	l545
  6894  0E71  2FFF               	
  6895                           l1680:	
  6896  0E72                     	goto	l545
  6897  0E72  2FFF               	line	129
  6898                           	
  6899                           l544:	
  6900  0E73                     	line	132
  6901                           	
  6902                           l1682:	
  6903  0E73                     	movf	(___fladd@a),w
  6904  0E73  0832               	addwf	(___fladd@b),f
  6905  0E74  07AE               	movf	(___fladd@a+1),w
  6906  0E75  0833               	clrz
  6907  0E76  1103               	skipnc
  6908  0E77  1803               	addlw	1
  6909  0E78  3E01               	skipnz
  6910  0E79  1903               	goto	u1961
  6911  0E7A  2E7C               	addwf	(___fladd@b+1),f
  6912  0E7B  07AF               u1961:
  6913  0E7C                     	movf	(___fladd@a+2),w
  6914  0E7C  0834               	clrz
  6915  0E7D  1103               	skipnc
  6916  0E7E  1803               	addlw	1
  6917  0E7F  3E01               	skipnz
  6918  0E80  1903               	goto	u1962
  6919  0E81  2E83               	addwf	(___fladd@b+2),f
  6920  0E82  07B0               u1962:
  6921  0E83                     	movf	(___fladd@a+3),w
  6922  0E83  0835               	clrz
  6923  0E84  1103               	skipnc
  6924  0E85  1803               	addlw	1
  6925  0E86  3E01               	skipnz
  6926  0E87  1903               	goto	u1963
  6927  0E88  2E8A               	addwf	(___fladd@b+3),f
  6928  0E89  07B1               u1963:
  6929  0E8A                     
  6930                           	line	134
  6931                           	
  6932                           l1684:	
  6933  0E8A                     	btfss	(___fladd@b+3),(24)&7
  6934  0E8A  1C31               	goto	u1971
  6935  0E8B  2E8D               	goto	u1970
  6936  0E8C  2E8E               u1971:
  6937  0E8D                     	goto	l1734
  6938  0E8D  2F7C               u1970:
  6939  0E8E                     	line	135
  6940                           	
  6941                           l1686:	
  6942  0E8E                     	btfss	(___fladd@grs),(0)&7
  6943  0E8E  1C45               	goto	u1981
  6944  0E8F  2E91               	goto	u1980
  6945  0E90  2E92               u1981:
  6946  0E91                     	goto	l1690
  6947  0E91  2E9B               u1980:
  6948  0E92                     	line	136
  6949                           	
  6950                           l1688:	
  6951  0E92                     	movf	(___fladd@grs),w
  6952  0E92  0845               	movwf	(??___fladd+0)+0
  6953  0E93  00B6               	clrc
  6954  0E94  1003               	rrf	(??___fladd+0)+0,w
  6955  0E95  0C36               	iorlw	01h
  6956  0E96  3801               	movwf	(??___fladd+1)+0
  6957  0E97  00B7               	movf	(??___fladd+1)+0,w
  6958  0E98  0837               	movwf	(___fladd@grs)
  6959  0E99  00C5               	line	137
  6960                           	goto	l1692
  6961  0E9A  2E9E               	line	138
  6962                           	
  6963                           l547:	
  6964  0E9B                     	line	139
  6965                           	
  6966                           l1690:	
  6967  0E9B                     	clrc
  6968  0E9B  1003               	rrf	(___fladd@grs),f
  6969  0E9C  0CC5               
  6970                           	goto	l1692
  6971  0E9D  2E9E               	line	140
  6972                           	
  6973                           l548:	
  6974  0E9E                     	line	141
  6975                           	
  6976                           l1692:	
  6977  0E9E                     	btfss	(___fladd@b),(0)&7
  6978  0E9E  1C2E               	goto	u1991
  6979  0E9F  2EA1               	goto	u1990
  6980  0EA0  2EA2               u1991:
  6981  0EA1                     	goto	l1696
  6982  0EA1  2EA4               u1990:
  6983  0EA2                     	line	142
  6984                           	
  6985                           l1694:	
  6986  0EA2                     	bsf	(___fladd@grs)+(7/8),(7)&7
  6987  0EA2  17C5               	goto	l1696
  6988  0EA3  2EA4               	line	143
  6989                           	
  6990                           l549:	
  6991  0EA4                     	line	144
  6992                           	
  6993                           l1696:	
  6994  0EA4                     	movlw	01h
  6995  0EA4  3001               	movwf	(??___fladd+0)+0
  6996  0EA5  00B6               u2005:
  6997  0EA6                     	rlf	(___fladd@b+3),w
  6998  0EA6  0D31               	rrf	(___fladd@b+3),f
  6999  0EA7  0CB1               	rrf	(___fladd@b+2),f
  7000  0EA8  0CB0               	rrf	(___fladd@b+1),f
  7001  0EA9  0CAF               	rrf	(___fladd@b),f
  7002  0EAA  0CAE               	decfsz	(??___fladd+0)+0&07fh,f
  7003  0EAB  0BB6               	goto	u2005
  7004  0EAC  2EA6               
  7005                           	line	145
  7006                           	
  7007                           l1698:	
  7008  0EAD                     	movlw	low(01h)
  7009  0EAD  3001               	movwf	(??___fladd+0)+0
  7010  0EAE  00B6               	movf	(??___fladd+0)+0,w
  7011  0EAF  0836               	addwf	(___fladd@bexp),f
  7012  0EB0  07C4               	goto	l1734
  7013  0EB1  2F7C               	line	146
  7014                           	
  7015                           l546:	
  7016  0EB2                     	line	148
  7017                           	goto	l1734
  7018  0EB2  2F7C               	line	149
  7019                           	
  7020                           l543:	
  7021  0EB3                     	line	153
  7022                           	
  7023                           l1700:	
  7024  0EB3                     	movf	(___fladd@b+3),w
  7025  0EB3  0831               	xorlw	80h
  7026  0EB4  3A80               	movwf	btemp+1
  7027  0EB5  00FF               	movf	(___fladd@a+3),w
  7028  0EB6  0835               	xorlw	80h
  7029  0EB7  3A80               	subwf	btemp+1,w
  7030  0EB8  027F               	
  7031                           	skipz
  7032  0EB9  1D03               	goto	u2013
  7033  0EBA  2EC5               	movf	(___fladd@a+2),w
  7034  0EBB  0834               	subwf	(___fladd@b+2),w
  7035  0EBC  0230               	skipz
  7036  0EBD  1D03               	goto	u2013
  7037  0EBE  2EC5               	movf	(___fladd@a+1),w
  7038  0EBF  0833               	subwf	(___fladd@b+1),w
  7039  0EC0  022F               	skipz
  7040  0EC1  1D03               	goto	u2013
  7041  0EC2  2EC5               	movf	(___fladd@a),w
  7042  0EC3  0832               	subwf	(___fladd@b),w
  7043  0EC4  022E               u2013:
  7044  0EC5                     	skipnc
  7045  0EC5  1803               	goto	u2011
  7046  0EC6  2EC8               	goto	u2010
  7047  0EC7  2EC9               u2011:
  7048  0EC8                     	goto	l1710
  7049  0EC8  2F2F               u2010:
  7050  0EC9                     	line	154
  7051                           	
  7052                           l1702:	
  7053  0EC9                     	movlw	0FFh
  7054  0EC9  30FF               	movwf	((??___fladd+0)+0)
  7055  0ECA  00B6               	movlw	0FFh
  7056  0ECB  30FF               	movwf	((??___fladd+0)+0+1)
  7057  0ECC  00B7               	movlw	0FFh
  7058  0ECD  30FF               	movwf	((??___fladd+0)+0+2)
  7059  0ECE  00B8               	movlw	0FFh
  7060  0ECF  30FF               	movwf	((??___fladd+0)+0+3)
  7061  0ED0  00B9               	movf	(___fladd@a),w
  7062  0ED1  0832               	movwf	(??___fladd+4)+0
  7063  0ED2  00BA               	movf	(___fladd@a+1),w
  7064  0ED3  0833               	movwf	((??___fladd+4)+0+1)
  7065  0ED4  00BB               	movf	(___fladd@a+2),w
  7066  0ED5  0834               	movwf	((??___fladd+4)+0+2)
  7067  0ED6  00BC               	movf	(___fladd@a+3),w
  7068  0ED7  0835               	movwf	((??___fladd+4)+0+3)
  7069  0ED8  00BD               	comf	(___fladd@b),w
  7070  0ED9  092E               	movwf	(??___fladd+8)+0
  7071  0EDA  00BE               	comf	(___fladd@b+1),w
  7072  0EDB  092F               	movwf	((??___fladd+8)+0+1)
  7073  0EDC  00BF               	comf	(___fladd@b+2),w
  7074  0EDD  0930               	movwf	((??___fladd+8)+0+2)
  7075  0EDE  00C0               	comf	(___fladd@b+3),w
  7076  0EDF  0931               	movwf	((??___fladd+8)+0+3)
  7077  0EE0  00C1               	incf	(??___fladd+8)+0,f
  7078  0EE1  0ABE               	skipnz
  7079  0EE2  1903               	incf	((??___fladd+8)+0+1),f
  7080  0EE3  0ABF               	skipnz
  7081  0EE4  1903               	incf	((??___fladd+8)+0+2),f
  7082  0EE5  0AC0               	skipnz
  7083  0EE6  1903               	incf	((??___fladd+8)+0+3),f
  7084  0EE7  0AC1               	movf	0+(??___fladd+8)+0,w
  7085  0EE8  083E               	addwf	(??___fladd+4)+0,f
  7086  0EE9  07BA               	movf	1+(??___fladd+8)+0,w
  7087  0EEA  083F               	skipnc
  7088  0EEB  1803               	incfsz	1+(??___fladd+8)+0,w
  7089  0EEC  0F3F               	goto	u2020
  7090  0EED  2EEF               	goto	u2021
  7091  0EEE  2EF0               u2020:
  7092  0EEF                     	addwf	(??___fladd+4)+1,f
  7093  0EEF  07BB               u2021:
  7094  0EF0                     	movf	2+(??___fladd+8)+0,w
  7095  0EF0  0840               	skipnc
  7096  0EF1  1803               	incfsz	2+(??___fladd+8)+0,w
  7097  0EF2  0F40               	goto	u2022
  7098  0EF3  2EF5               	goto	u2023
  7099  0EF4  2EF6               u2022:
  7100  0EF5                     	addwf	(??___fladd+4)+2,f
  7101  0EF5  07BC               u2023:
  7102  0EF6                     	movf	3+(??___fladd+8)+0,w
  7103  0EF6  0841               	skipnc
  7104  0EF7  1803               	incf	3+(??___fladd+8)+0,w
  7105  0EF8  0A41               	addwf	(??___fladd+4)+3,f
  7106  0EF9  07BD               	movf	0+(??___fladd+4)+0,w
  7107  0EFA  083A               	addwf	(??___fladd+0)+0,f
  7108  0EFB  07B6               	movf	1+(??___fladd+4)+0,w
  7109  0EFC  083B               	skipnc
  7110  0EFD  1803               	incfsz	1+(??___fladd+4)+0,w
  7111  0EFE  0F3B               	goto	u2030
  7112  0EFF  2F01               	goto	u2031
  7113  0F00  2F02               u2030:
  7114  0F01                     	addwf	(??___fladd+0)+1,f
  7115  0F01  07B7               u2031:
  7116  0F02                     	movf	2+(??___fladd+4)+0,w
  7117  0F02  083C               	skipnc
  7118  0F03  1803               	incfsz	2+(??___fladd+4)+0,w
  7119  0F04  0F3C               	goto	u2032
  7120  0F05  2F07               	goto	u2033
  7121  0F06  2F08               u2032:
  7122  0F07                     	addwf	(??___fladd+0)+2,f
  7123  0F07  07B8               u2033:
  7124  0F08                     	movf	3+(??___fladd+4)+0,w
  7125  0F08  083D               	skipnc
  7126  0F09  1803               	incf	3+(??___fladd+4)+0,w
  7127  0F0A  0A3D               	addwf	(??___fladd+0)+3,f
  7128  0F0B  07B9               	movf	3+(??___fladd+0)+0,w
  7129  0F0C  0839               	movwf	(___fladd@b+3)
  7130  0F0D  00B1               	movf	2+(??___fladd+0)+0,w
  7131  0F0E  0838               	movwf	(___fladd@b+2)
  7132  0F0F  00B0               	movf	1+(??___fladd+0)+0,w
  7133  0F10  0837               	movwf	(___fladd@b+1)
  7134  0F11  00AF               	movf	0+(??___fladd+0)+0,w
  7135  0F12  0836               	movwf	(___fladd@b)
  7136  0F13  00AE               
  7137                           	line	155
  7138                           	movlw	low(080h)
  7139  0F14  3080               	movwf	(??___fladd+0)+0
  7140  0F15  00B6               	movf	(??___fladd+0)+0,w
  7141  0F16  0836               	xorwf	(___fladd@signs),f
  7142  0F17  06C2               	line	156
  7143                           	
  7144                           l1704:	
  7145  0F18                     	comf	(___fladd@grs),f
  7146  0F18  09C5               	incf	(___fladd@grs),f
  7147  0F19  0AC5               	line	157
  7148                           	
  7149                           l1706:	
  7150  0F1A                     	movf	((___fladd@grs)),w
  7151  0F1A  0845               	btfss	status,2
  7152  0F1B  1D03               	goto	u2041
  7153  0F1C  2F1E               	goto	u2040
  7154  0F1D  2F1F               u2041:
  7155  0F1E                     	goto	l553
  7156  0F1E  2F3D               u2040:
  7157  0F1F                     	line	158
  7158                           	
  7159                           l1708:	
  7160  0F1F                     	movlw	01h
  7161  0F1F  3001               	addwf	(___fladd@b),f
  7162  0F20  07AE               	movlw	0
  7163  0F21  3000               	skipnc
  7164  0F22  1803               movlw 1
  7165  0F23  3001               	addwf	(___fladd@b+1),f
  7166  0F24  07AF               	movlw	0
  7167  0F25  3000               	skipnc
  7168  0F26  1803               movlw 1
  7169  0F27  3001               	addwf	(___fladd@b+2),f
  7170  0F28  07B0               	movlw	0
  7171  0F29  3000               	skipnc
  7172  0F2A  1803               movlw 1
  7173  0F2B  3001               	addwf	(___fladd@b+3),f
  7174  0F2C  07B1               	goto	l553
  7175  0F2D  2F3D               	line	159
  7176                           	
  7177                           l552:	
  7178  0F2E                     	line	160
  7179                           	goto	l553
  7180  0F2E  2F3D               	line	161
  7181                           	
  7182                           l551:	
  7183  0F2F                     	line	162
  7184                           	
  7185                           l1710:	
  7186  0F2F                     	movf	(___fladd@a),w
  7187  0F2F  0832               	subwf	(___fladd@b),f
  7188  0F30  02AE               	movf	(___fladd@a+1),w
  7189  0F31  0833               	skipc
  7190  0F32  1C03               	incfsz	(___fladd@a+1),w
  7191  0F33  0F33               	subwf	(___fladd@b+1),f
  7192  0F34  02AF               	movf	(___fladd@a+2),w
  7193  0F35  0834               	skipc
  7194  0F36  1C03               	incfsz	(___fladd@a+2),w
  7195  0F37  0F34               	subwf	(___fladd@b+2),f
  7196  0F38  02B0               	movf	(___fladd@a+3),w
  7197  0F39  0835               	skipc
  7198  0F3A  1C03               	incfsz	(___fladd@a+3),w
  7199  0F3B  0F35               	subwf	(___fladd@b+3),f
  7200  0F3C  02B1               	line	163
  7201                           	
  7202                           l553:	
  7203  0F3D                     	line	166
  7204                           	movf	(___fladd@b+3),w
  7205  0F3D  0831               	iorwf	(___fladd@b+2),w
  7206  0F3E  0430               	iorwf	(___fladd@b+1),w
  7207  0F3F  042F               	iorwf	(___fladd@b),w
  7208  0F40  042E               	skipz
  7209  0F41  1D03               	goto	u2051
  7210  0F42  2F44               	goto	u2050
  7211  0F43  2F45               u2051:
  7212  0F44                     	goto	l1732
  7213  0F44  2F76               u2050:
  7214  0F45                     	
  7215                           l1712:	
  7216  0F45                     	movf	((___fladd@grs)),w
  7217  0F45  0845               	btfss	status,2
  7218  0F46  1D03               	goto	u2061
  7219  0F47  2F49               	goto	u2060
  7220  0F48  2F4A               u2061:
  7221  0F49                     	goto	l1732
  7222  0F49  2F76               u2060:
  7223  0F4A                     	line	167
  7224                           	
  7225                           l1714:	
  7226  0F4A                     	movlw	0x0
  7227  0F4A  3000               	movwf	(?___fladd+3)
  7228  0F4B  00B1               	movlw	0x0
  7229  0F4C  3000               	movwf	(?___fladd+2)
  7230  0F4D  00B0               	movlw	0x0
  7231  0F4E  3000               	movwf	(?___fladd+1)
  7232  0F4F  00AF               	movlw	0x0
  7233  0F50  3000               	movwf	(?___fladd)
  7234  0F51  00AE               
  7235                           	goto	l545
  7236  0F52  2FFF               	
  7237                           l1716:	
  7238  0F53                     	goto	l545
  7239  0F53  2FFF               	line	168
  7240                           	
  7241                           l554:	
  7242  0F54                     	line	171
  7243                           	goto	l1732
  7244  0F54  2F76               	
  7245                           l556:	
  7246  0F55                     	line	172
  7247                           	
  7248                           l1718:	
  7249  0F55                     	movlw	01h
  7250  0F55  3001               	movwf	(??___fladd+0)+0
  7251  0F56  00B6               u2075:
  7252  0F57                     	clrc
  7253  0F57  1003               	rlf	(___fladd@b),f
  7254  0F58  0DAE               	rlf	(___fladd@b+1),f
  7255  0F59  0DAF               	rlf	(___fladd@b+2),f
  7256  0F5A  0DB0               	rlf	(___fladd@b+3),f
  7257  0F5B  0DB1               	decfsz	(??___fladd+0)+0
  7258  0F5C  0BB6               	goto	u2075
  7259  0F5D  2F57               	line	173
  7260                           	
  7261                           l1720:	
  7262  0F5E                     	btfss	(___fladd@grs),(7)&7
  7263  0F5E  1FC5               	goto	u2081
  7264  0F5F  2F61               	goto	u2080
  7265  0F60  2F62               u2081:
  7266  0F61                     	goto	l557
  7267  0F61  2F63               u2080:
  7268  0F62                     	line	174
  7269                           	
  7270                           l1722:	
  7271  0F62                     	bsf	(___fladd@b)+(0/8),(0)&7
  7272  0F62  142E               	line	175
  7273                           	
  7274                           l557:	
  7275  0F63                     	line	176
  7276                           	btfss	(___fladd@grs),(0)&7
  7277  0F63  1C45               	goto	u2091
  7278  0F64  2F66               	goto	u2090
  7279  0F65  2F67               u2091:
  7280  0F66                     	goto	l1726
  7281  0F66  2F6A               u2090:
  7282  0F67                     	line	177
  7283                           	
  7284                           l1724:	
  7285  0F67                     	setc
  7286  0F67  1403               	rlf	(___fladd@grs),f
  7287  0F68  0DC5               	line	178
  7288                           	goto	l1728
  7289  0F69  2F6D               	line	179
  7290                           	
  7291                           l558:	
  7292  0F6A                     	line	180
  7293                           	
  7294                           l1726:	
  7295  0F6A                     	clrc
  7296  0F6A  1003               	rlf	(___fladd@grs),f
  7297  0F6B  0DC5               
  7298                           	goto	l1728
  7299  0F6C  2F6D               	line	181
  7300                           	
  7301                           l559:	
  7302  0F6D                     	line	182
  7303                           	
  7304                           l1728:	
  7305  0F6D                     	movf	((___fladd@bexp)),w
  7306  0F6D  0844               	btfsc	status,2
  7307  0F6E  1903               	goto	u2101
  7308  0F6F  2F71               	goto	u2100
  7309  0F70  2F72               u2101:
  7310  0F71                     	goto	l1732
  7311  0F71  2F76               u2100:
  7312  0F72                     	line	183
  7313                           	
  7314                           l1730:	
  7315  0F72                     	movlw	01h
  7316  0F72  3001               	subwf	(___fladd@bexp),f
  7317  0F73  02C4               	goto	l1732
  7318  0F74  2F76               	line	184
  7319                           	
  7320                           l560:	
  7321  0F75                     	goto	l1732
  7322  0F75  2F76               	line	185
  7323                           	
  7324                           l555:	
  7325  0F76                     	line	171
  7326                           	
  7327                           l1732:	
  7328  0F76                     	btfss	(___fladd@b+2),(23)&7
  7329  0F76  1FB0               	goto	u2111
  7330  0F77  2F79               	goto	u2110
  7331  0F78  2F7A               u2111:
  7332  0F79                     	goto	l1718
  7333  0F79  2F55               u2110:
  7334  0F7A                     	goto	l1734
  7335  0F7A  2F7C               	
  7336                           l561:	
  7337  0F7B                     	goto	l1734
  7338  0F7B  2F7C               	line	186
  7339                           	
  7340                           l550:	
  7341  0F7C                     	line	192
  7342                           	
  7343                           l1734:	
  7344  0F7C                     	clrf	(___fladd@aexp)
  7345  0F7C  01C3               	line	193
  7346                           	
  7347                           l1736:	
  7348  0F7D                     	btfss	(___fladd@grs),(7)&7
  7349  0F7D  1FC5               	goto	u2121
  7350  0F7E  2F80               	goto	u2120
  7351  0F7F  2F81               u2121:
  7352  0F80                     	goto	l1744
  7353  0F80  2F93               u2120:
  7354  0F81                     	line	194
  7355                           	
  7356                           l1738:	
  7357  0F81                     	movf	(___fladd@grs),w
  7358  0F81  0845               	andlw	07Fh
  7359  0F82  397F               	btfsc	status,2
  7360  0F83  1903               	goto	u2131
  7361  0F84  2F86               	goto	u2130
  7362  0F85  2F87               u2131:
  7363  0F86                     	goto	l563
  7364  0F86  2F8A               u2130:
  7365  0F87                     	line	195
  7366                           	
  7367                           l1740:	
  7368  0F87                     	clrf	(___fladd@aexp)
  7369  0F87  01C3               	incf	(___fladd@aexp),f
  7370  0F88  0AC3               	line	196
  7371                           	goto	l1744
  7372  0F89  2F93               	line	197
  7373                           	
  7374                           l563:	
  7375  0F8A                     	line	198
  7376                           	btfss	(___fladd@b),(0)&7
  7377  0F8A  1C2E               	goto	u2141
  7378  0F8B  2F8D               	goto	u2140
  7379  0F8C  2F8E               u2141:
  7380  0F8D                     	goto	l1744
  7381  0F8D  2F93               u2140:
  7382  0F8E                     	line	199
  7383                           	
  7384                           l1742:	
  7385  0F8E                     	clrf	(___fladd@aexp)
  7386  0F8E  01C3               	incf	(___fladd@aexp),f
  7387  0F8F  0AC3               	goto	l1744
  7388  0F90  2F93               	line	200
  7389                           	
  7390                           l565:	
  7391  0F91                     	goto	l1744
  7392  0F91  2F93               	line	201
  7393                           	
  7394                           l564:	
  7395  0F92                     	goto	l1744
  7396  0F92  2F93               	line	202
  7397                           	
  7398                           l562:	
  7399  0F93                     	line	203
  7400                           	
  7401                           l1744:	
  7402  0F93                     	movf	((___fladd@aexp)),w
  7403  0F93  0843               	btfsc	status,2
  7404  0F94  1903               	goto	u2151
  7405  0F95  2F97               	goto	u2150
  7406  0F96  2F98               u2151:
  7407  0F97                     	goto	l566
  7408  0F97  2FCE               u2150:
  7409  0F98                     	line	204
  7410                           	
  7411                           l1746:	
  7412  0F98                     	movlw	01h
  7413  0F98  3001               	addwf	(___fladd@b),f
  7414  0F99  07AE               	movlw	0
  7415  0F9A  3000               	skipnc
  7416  0F9B  1803               movlw 1
  7417  0F9C  3001               	addwf	(___fladd@b+1),f
  7418  0F9D  07AF               	movlw	0
  7419  0F9E  3000               	skipnc
  7420  0F9F  1803               movlw 1
  7421  0FA0  3001               	addwf	(___fladd@b+2),f
  7422  0FA1  07B0               	movlw	0
  7423  0FA2  3000               	skipnc
  7424  0FA3  1803               movlw 1
  7425  0FA4  3001               	addwf	(___fladd@b+3),f
  7426  0FA5  07B1               	line	205
  7427                           	
  7428                           l1748:	
  7429  0FA6                     	btfss	(___fladd@b+3),(24)&7
  7430  0FA6  1C31               	goto	u2161
  7431  0FA7  2FA9               	goto	u2160
  7432  0FA8  2FAA               u2161:
  7433  0FA9                     	goto	l566
  7434  0FA9  2FCE               u2160:
  7435  0FAA                     	line	206
  7436                           	
  7437                           l1750:	
  7438  0FAA                     	movf	(___fladd@b),w
  7439  0FAA  082E               	movwf	(??___fladd+0)+0
  7440  0FAB  00B6               	movf	(___fladd@b+1),w
  7441  0FAC  082F               	movwf	((??___fladd+0)+0+1)
  7442  0FAD  00B7               	movf	(___fladd@b+2),w
  7443  0FAE  0830               	movwf	((??___fladd+0)+0+2)
  7444  0FAF  00B8               	movf	(___fladd@b+3),w
  7445  0FB0  0831               	movwf	((??___fladd+0)+0+3)
  7446  0FB1  00B9               	movlw	01h
  7447  0FB2  3001               	movwf	(??___fladd+4)+0
  7448  0FB3  00BA               u2175:
  7449  0FB4                     	rlf	(??___fladd+0)+3,w
  7450  0FB4  0D39               	rrf	(??___fladd+0)+3,f
  7451  0FB5  0CB9               	rrf	(??___fladd+0)+2,f
  7452  0FB6  0CB8               	rrf	(??___fladd+0)+1,f
  7453  0FB7  0CB7               	rrf	(??___fladd+0)+0,f
  7454  0FB8  0CB6               u2170:
  7455  0FB9                     	decfsz	(??___fladd+4)+0,f
  7456  0FB9  0BBA               	goto	u2175
  7457  0FBA  2FB4               	movf	3+(??___fladd+0)+0,w
  7458  0FBB  0839               	movwf	(___fladd@b+3)
  7459  0FBC  00B1               	movf	2+(??___fladd+0)+0,w
  7460  0FBD  0838               	movwf	(___fladd@b+2)
  7461  0FBE  00B0               	movf	1+(??___fladd+0)+0,w
  7462  0FBF  0837               	movwf	(___fladd@b+1)
  7463  0FC0  00AF               	movf	0+(??___fladd+0)+0,w
  7464  0FC1  0836               	movwf	(___fladd@b)
  7465  0FC2  00AE               
  7466                           	line	207
  7467                           		incf	((___fladd@bexp)),w
  7468  0FC3  0A44               	btfsc	status,2
  7469  0FC4  1903               	goto	u2181
  7470  0FC5  2FC7               	goto	u2180
  7471  0FC6  2FC8               u2181:
  7472  0FC7                     	goto	l566
  7473  0FC7  2FCE               u2180:
  7474  0FC8                     	line	208
  7475                           	
  7476                           l1752:	
  7477  0FC8                     	movlw	low(01h)
  7478  0FC8  3001               	movwf	(??___fladd+0)+0
  7479  0FC9  00B6               	movf	(??___fladd+0)+0,w
  7480  0FCA  0836               	addwf	(___fladd@bexp),f
  7481  0FCB  07C4               	goto	l566
  7482  0FCC  2FCE               	line	209
  7483                           	
  7484                           l568:	
  7485  0FCD                     	goto	l566
  7486  0FCD  2FCE               	line	210
  7487                           	
  7488                           l567:	
  7489  0FCE                     	line	211
  7490                           	
  7491                           l566:	
  7492  0FCE                     	line	215
  7493                           		incf	((___fladd@bexp)),w
  7494  0FCE  0A44               	btfsc	status,2
  7495  0FCF  1903               	goto	u2191
  7496  0FD0  2FD2               	goto	u2190
  7497  0FD1  2FD3               u2191:
  7498  0FD2                     	goto	l1756
  7499  0FD2  2FD9               u2190:
  7500  0FD3                     	
  7501                           l1754:	
  7502  0FD3                     	movf	((___fladd@bexp)),w
  7503  0FD3  0844               	btfss	status,2
  7504  0FD4  1D03               	goto	u2201
  7505  0FD5  2FD7               	goto	u2200
  7506  0FD6  2FD8               u2201:
  7507  0FD7                     	goto	l1762
  7508  0FD7  2FE9               u2200:
  7509  0FD8                     	goto	l1756
  7510  0FD8  2FD9               	
  7511                           l571:	
  7512  0FD9                     	line	216
  7513                           	
  7514                           l1756:	
  7515  0FD9                     	movlw	high highword(0)
  7516  0FD9  3000               	movwf	(___fladd@b+3)
  7517  0FDA  00B1               	movlw	low highword(0)
  7518  0FDB  3000               	movwf	(___fladd@b+2)
  7519  0FDC  00B0               	movlw	high(0)
  7520  0FDD  3000               	movwf	(___fladd@b+1)
  7521  0FDE  00AF               	movlw	low(0)
  7522  0FDF  3000               	movwf	(___fladd@b)
  7523  0FE0  00AE               
  7524                           	line	218
  7525                           	
  7526                           l1758:	
  7527  0FE1                     	movf	((___fladd@bexp)),w
  7528  0FE1  0844               	btfss	status,2
  7529  0FE2  1D03               	goto	u2211
  7530  0FE3  2FE5               	goto	u2210
  7531  0FE4  2FE6               u2211:
  7532  0FE5                     	goto	l1762
  7533  0FE5  2FE9               u2210:
  7534  0FE6                     	line	219
  7535                           	
  7536                           l1760:	
  7537  0FE6                     	clrf	(___fladd@signs)
  7538  0FE6  01C2               	goto	l1762
  7539  0FE7  2FE9               	line	220
  7540                           	
  7541                           l572:	
  7542  0FE8                     	goto	l1762
  7543  0FE8  2FE9               	line	221
  7544                           	
  7545                           l569:	
  7546  0FE9                     	line	225
  7547                           	
  7548                           l1762:	
  7549  0FE9                     	btfss	(___fladd@bexp),(0)&7
  7550  0FE9  1C44               	goto	u2221
  7551  0FEA  2FEC               	goto	u2220
  7552  0FEB  2FED               u2221:
  7553  0FEC                     	goto	l1766
  7554  0FEC  2FEF               u2220:
  7555  0FED                     	line	226
  7556                           	
  7557                           l1764:	
  7558  0FED                     	bsf	0+(___fladd@b)+02h+(7/8),(7)&7
  7559  0FED  17B0               	line	227
  7560                           	goto	l574
  7561  0FEE  2FF3               	line	229
  7562                           	
  7563                           l573:	
  7564  0FEF                     	line	230
  7565                           	
  7566                           l1766:	
  7567  0FEF                     	movlw	low(07Fh)
  7568  0FEF  307F               	movwf	(??___fladd+0)+0
  7569  0FF0  00B6               	movf	(??___fladd+0)+0,w
  7570  0FF1  0836               	andwf	0+(___fladd@b)+02h,f
  7571  0FF2  05B0               	line	231
  7572                           	
  7573                           l574:	
  7574  0FF3                     	line	232
  7575                           	movf	(___fladd@bexp),w
  7576  0FF3  0844               	movwf	(??___fladd+0)+0
  7577  0FF4  00B6               	clrc
  7578  0FF5  1003               	rrf	(??___fladd+0)+0,w
  7579  0FF6  0C36               	movwf	(??___fladd+1)+0
  7580  0FF7  00B7               	movf	(??___fladd+1)+0,w
  7581  0FF8  0837               	movwf	0+(___fladd@b)+03h
  7582  0FF9  00B1               	line	233
  7583                           	
  7584                           l1768:	
  7585  0FFA                     	btfss	(___fladd@signs),(7)&7
  7586  0FFA  1FC2               	goto	u2231
  7587  0FFB  2FFD               	goto	u2230
  7588  0FFC  2FFE               u2231:
  7589  0FFD                     	goto	l575
  7590  0FFD  2FFF               u2230:
  7591  0FFE                     	line	234
  7592                           	
  7593                           l1770:	
  7594  0FFE                     	bsf	0+(___fladd@b)+03h+(7/8),(7)&7
  7595  0FFE  17B1               	line	235
  7596                           	
  7597                           l575:	
  7598  0FFF                     	line	236
  7599                           	line	237
  7600                           	
  7601                           l545:	
  7602  0FFF                     	return
  7603  0FFF  0008               	opt stack 0
  7604                           GLOBAL	__end_of___fladd
  7605                           	__end_of___fladd:
  7606  1000                     	signat	___fladd,8316
  7607                           	global	_ISR
  7608                           
  7609 ;; *************** function _ISR *****************
  7610 ;; Defined at:
  7611 ;;		line 54 in file "mainM.c"
  7612 ;; Parameters:    Size  Location     Type
  7613 ;;		None
  7614 ;; Auto vars:     Size  Location     Type
  7615 ;;		None
  7616 ;; Return value:  Size  Location     Type
  7617 ;;                  1    wreg      void 
  7618 ;; Registers used:
  7619 ;;		wreg
  7620 ;; Tracked objects:
  7621 ;;		On entry : 0/0
  7622 ;;		On exit  : 0/0
  7623 ;;		Unchanged: 0/0
  7624 ;; Data sizes:     COMMON   BANK0   BANK1   BANK3   BANK2
  7625 ;;      Params:         0       0       0       0       0
  7626 ;;      Locals:         0       0       0       0       0
  7627 ;;      Temps:          2       0       0       0       0
  7628 ;;      Totals:         2       0       0       0       0
  7629 ;;Total ram usage:        2 bytes
  7630 ;; Hardware stack levels used:    1
  7631 ;; This function calls:
  7632 ;;		Nothing
  7633 ;; This function is called by:
  7634 ;;		Interrupt level 1
  7635 ;; This function uses a non-reentrant model
  7636 ;;
  7637                           psect	text15,local,class=CODE,delta=2,merge=1,group=0
  7638                           	file	"mainM.c"
  7639                           	line	54
  7640                           global __ptext15
  7641                           __ptext15:	;psect for function _ISR
  7642  09FC                     psect	text15
  7643                           	file	"mainM.c"
  7644                           	line	54
  7645                           	global	__size_of_ISR
  7646                           	__size_of_ISR	equ	__end_of_ISR-_ISR
  7647  0011                     	
  7648                           _ISR:	
  7649  09FC                     ;incstack = 0
  7650                           	opt	stack 5
  7651                           ; Regs used in _ISR: [wreg]
  7652                           psect	intentry,class=CODE,delta=2
  7653                           global __pintentry
  7654                           __pintentry:
  7655  0004                     global interrupt_function
  7656                           interrupt_function:
  7657  0004                     	global saved_w
  7658                           	saved_w	set	btemp+0
  7659  007E                     	movwf	saved_w
  7660  0004  00FE               	swapf	status,w
  7661  0005  0E03               	movwf	(??_ISR+0)
  7662  0006  00F0               	movf	pclath,w
  7663  0007  080A               	movwf	(??_ISR+1)
  7664  0008  00F1               	ljmp	_ISR
  7665  0009  120A  158A  29FC   psect	text15
  7666                           	line	55
  7667                           	
  7668                           i1l1390:	
  7669  09FC                     ;mainM.c: 55:     if(PIR1bits.RCIF == 1){
  7670                           	bcf	status, 5	;RP0=0, select bank0
  7671  09FC  1283               	bcf	status, 6	;RP1=0, select bank0
  7672  09FD  1303               	btfss	(12),5	;volatile
  7673  09FE  1E8C               	goto	u152_21
  7674  09FF  2A01               	goto	u152_20
  7675  0A00  2A02               u152_21:
  7676  0A01                     	goto	i1l66
  7677  0A01  2A06               u152_20:
  7678  0A02                     	line	56
  7679                           	
  7680                           i1l1392:	
  7681  0A02                     ;mainM.c: 56:         PORTAbits.RA0 = 1;
  7682                           	bsf	(5),0	;volatile
  7683  0A02  1405               	line	57
  7684                           	
  7685                           i1l1394:	
  7686  0A03                     ;mainM.c: 57:         PORTB = RCREG;
  7687                           	movf	(26),w	;volatile
  7688  0A03  081A               	movwf	(6)	;volatile
  7689  0A04  0086               	goto	i1l66
  7690  0A05  2A06               	line	58
  7691                           ;mainM.c: 58:     }
  7692                           	
  7693                           i1l65:	
  7694  0A06                     	line	59
  7695                           	
  7696                           i1l66:	
  7697  0A06                     	movf	(??_ISR+1),w
  7698  0A06  0871               	movwf	pclath
  7699  0A07  008A               	swapf	(??_ISR+0)^0FFFFFF80h,w
  7700  0A08  0E70               	movwf	status
  7701  0A09  0083               	swapf	saved_w,f
  7702  0A0A  0EFE               	swapf	saved_w,w
  7703  0A0B  0E7E               	retfie
  7704  0A0C  0009               	opt stack 0
  7705                           GLOBAL	__end_of_ISR
  7706                           	__end_of_ISR:
  7707  0A0D                     	signat	_ISR,89
  7708                           global	___latbits
  7709                           ___latbits	equ	2
  7710  0002                     	global	btemp
  7711                           	btemp set 07Eh
  7712  007E                     
  7713                           	DABS	1,126,2	;btemp
  7714                           	global	wtemp0
  7715                           	wtemp0 set btemp+0
  7716  007E                     	end


Data Sizes:
    Strings     0
    Constant    0
    Data        0
    BSS         22
    Persistent  0
    Stack       0

Auto Spaces:
    Space          Size  Autos    Used
    COMMON           14      8      11
    BANK0            80     77      80
    BANK1            80     17      33
    BANK3            96      0       0
    BANK2            96      0       0

Pointer List with Targets:

    None.

Critical Paths under _main in COMMON

    _main->___fltol
    _setup->_spiInit
    ___flneg->___xxtofl
    ___flmul->__Umul8_16
    ___flmul->___xxtofl
    ___fldiv->___xxtofl
    ___fladd->___xxtofl

Critical Paths under _ISR in COMMON

    None.

Critical Paths under _main in BANK0

    _main->___fldiv
    ___flneg->___xxtofl
    ___flmul->___fladd
    ___fldiv->___flmul
    ___fladd->___flneg

Critical Paths under _ISR in BANK0

    None.

Critical Paths under _main in BANK1

    _main->___fldiv

Critical Paths under _ISR in BANK1

    None.

Critical Paths under _main in BANK3

    None.

Critical Paths under _ISR in BANK3

    None.

Critical Paths under _main in BANK2

    None.

Critical Paths under _ISR in BANK2

    None.

Call Graph Tables:

 ---------------------------------------------------------------------------------
 (Depth) Function   	        Calls       Base Space   Used Autos Params    Refs
 ---------------------------------------------------------------------------------
 (0) _main                                                 4     4      0   10548
                                             13 BANK1      4     4      0
                            ___fladd
                            ___fldiv
                            ___flmul
                            ___flneg
                            ___fltol
                           ___xxtofl
                          _initUSART
                          _sendUSART
                              _setup
                            _spiRead
                           _spiWrite
 ---------------------------------------------------------------------------------
 (1) _spiWrite                                             1     1      0      22
                                              2 COMMON     1     1      0
 ---------------------------------------------------------------------------------
 (1) _spiRead                                              0     0      0       0
                     _spiReceiveWait
 ---------------------------------------------------------------------------------
 (2) _spiReceiveWait                                       0     0      0       0
 ---------------------------------------------------------------------------------
 (1) _setup                                                0     0      0     360
                            _spiInit
 ---------------------------------------------------------------------------------
 (2) _spiInit                                              4     1      3     360
                                              2 COMMON     4     1      3
 ---------------------------------------------------------------------------------
 (1) _sendUSART                                            1     1      0      22
                                              2 COMMON     1     1      0
 ---------------------------------------------------------------------------------
 (1) _initUSART                                            5     0      5     502
                                              2 COMMON     5     0      5
 ---------------------------------------------------------------------------------
 (1) ___xxtofl                                            14    10      4     836
                                              2 COMMON     4     0      4
                                              0 BANK0     10    10      0
 ---------------------------------------------------------------------------------
 (1) ___fltol                                             11     7      4     877
                                              2 COMMON     6     2      4
                                              0 BANK0      5     5      0
 ---------------------------------------------------------------------------------
 (1) ___flneg                                              4     0      4     197
                                             10 BANK0      4     0      4
                           ___xxtofl (ARG)
 ---------------------------------------------------------------------------------
 (1) ___flmul                                             26    18      8    3893
                                             38 BANK0     26    18      8
                          __Umul8_16
                            ___fladd (ARG)
                            ___flneg (ARG)
                           ___xxtofl (ARG)
 ---------------------------------------------------------------------------------
 (2) __Umul8_16                                            9     7      2     980
                                              2 COMMON     4     2      2
                                              0 BANK0      5     5      0
 ---------------------------------------------------------------------------------
 (1) ___fldiv                                             26    18      8    1425
                                             64 BANK0     13     5      8
                                              0 BANK1     13    13      0
                            ___flmul (ARG)
                           ___xxtofl (ARG)
 ---------------------------------------------------------------------------------
 (1) ___fladd                                             24    16      8    2414
                                             14 BANK0     24    16      8
                            ___flneg (ARG)
                           ___xxtofl (ARG)
 ---------------------------------------------------------------------------------
 Estimated maximum stack depth 2
 ---------------------------------------------------------------------------------
 (Depth) Function   	        Calls       Base Space   Used Autos Params    Refs
 ---------------------------------------------------------------------------------
 (3) _ISR                                                  2     2      0       0
                                              0 COMMON     2     2      0
 ---------------------------------------------------------------------------------
 Estimated maximum stack depth 3
 ---------------------------------------------------------------------------------

 Call Graph Graphs:

 _main (ROOT)
   ___fladd
     ___flneg (ARG)
       ___xxtofl (ARG)
     ___xxtofl (ARG)
   ___fldiv
     ___flmul (ARG)
       __Umul8_16
       ___fladd (ARG)
         ___flneg (ARG)
           ___xxtofl (ARG)
         ___xxtofl (ARG)
       ___flneg (ARG)
         ___xxtofl (ARG)
       ___xxtofl (ARG)
     ___xxtofl (ARG)
   ___flmul
     __Umul8_16
     ___fladd (ARG)
       ___flneg (ARG)
         ___xxtofl (ARG)
       ___xxtofl (ARG)
     ___flneg (ARG)
       ___xxtofl (ARG)
     ___xxtofl (ARG)
   ___flneg
     ___xxtofl (ARG)
   ___fltol
   ___xxtofl
   _initUSART
   _sendUSART
   _setup
     _spiInit
   _spiRead
     _spiReceiveWait
   _spiWrite

 _ISR (ROOT)

 Address spaces:
Name               Size   Autos  Total    Cost      Usage
BITCOMMON            E      0       0       0        0.0%
EEDATA             100      0       0       0        0.0%
NULL                 0      0       0       0        0.0%
CODE                 0      0       0       0        0.0%
COMMON               E      8       B       1       78.6%
BITSFR0              0      0       0       1        0.0%
SFR0                 0      0       0       1        0.0%
BITSFR1              0      0       0       2        0.0%
SFR1                 0      0       0       2        0.0%
STACK                0      0       0       2        0.0%
ABS                  0      0      7C       3        0.0%
BITBANK0            50      0       0       4        0.0%
BITSFR3              0      0       0       4        0.0%
SFR3                 0      0       0       4        0.0%
BANK0               50     4D      50       5      100.0%
BITSFR2              0      0       0       5        0.0%
SFR2                 0      0       0       5        0.0%
BITBANK1            50      0       0       6        0.0%
BANK1               50     11      21       7       41.3%
BITBANK3            60      0       0       8        0.0%
BANK3               60      0       0       9        0.0%
BITBANK2            60      0       0      10        0.0%
BANK2               60      0       0      11        0.0%
DATA                 0      0      7C      12        0.0%


Microchip Technology PIC Macro Assembler V2.00 build -1524193055 
Symbol Table                                                                                   Sat Feb 15 08:54:59 2020

            ___fldiv@aexp 00AC              ___fldiv@bexp 00AB              ___fldiv@sign 00A4  
             __CFG_CP$OFF 0000               _SSPSTATbits 0094                        l71 0ACD  
                      l72 0D40                        l73 0D41                        l74 0D41  
                      l92 0A19                        l93 0A1D                        l77 0A3E  
                      l94 0A22                        l97 09D7                        l98 09D7  
                      l99 09DE                        fsr 0004       __Umul8_16@word_mpld 0022  
                     l100 09DE                       l111 07FC                       l103 09CD  
                     l140 0A90                       l141 0AB5                       l142 0A9C  
                     l134 0A5C                       l150 09E1                       l143 0AB4  
                     l135 0A64                       l151 09E1                       l144 0AA8  
                     l136 0A78                       l152 09E8                       l137 0AB7  
                     l145 0AB3                       l153 09EC                       l146 0AB2  
                     l138 0A84                       l147 0AB9                       l139 0AB6  
                     l420 09FA                       l421 09FB                       l430 07B6  
                     l431 07A3                       l600 054A                       l432 07AF  
                     l424 074A                       l601 055E                       l433 07A4  
                     l425 07C6                       l530 0DA5                       l610 0633  
                     l602 057C                       l434 07B5                       l426 0793  
                     l531 0DA2                       l611 0645                       l603 05B5  
                     l435 07C6                       l427 077F                       l540 0E43  
                     l532 0DAD                       l524 0D57                       l612 064A  
                     l604 05AA                       l620 0055                       l428 0780  
                     l541 0E49                       l533 0DF9                       l525 0D6D  
                     l605 05B4                       l621 0066                       l429 0792  
                     l550 0F7C                       l542 0E60                       l534 0DBC  
                     l526 0D6A                       l606 05B3                       l630 02BB  
                     l622 007B                       l551 0F2F                       l543 0EB3  
                     l535 0E32                       l527 0D76                       l607 05F3  
                     l631 02CA                       l623 0079                       l560 0F75  
                     l552 0F2E                       l544 0E73                       l536 0E60  
                     l528 0D83                       l608 05F2                       l640 038B  
                     l632 02DF                       l624 0084                       l561 0F7B  
                     l553 0F3D                       l545 0FFF                       l537 0E57  
                     l529 0D8F                       l609 0613                       l641 036F  
                     l633 0304                       l625 0099                       l617 0037  
                     l562 0F93                       l554 0F54                       l546 0EB2  
                     l538 0E33                       l642 038B                       l634 02FB  
                     l618 004C                       l650 06B0                       l571 0FD9  
                     l563 0F8A                       l555 0F76                       l547 0E9B  
                     l539 0E40                       l643 0383                       l635 0303  
                     l627 008F                       l619 004A                       l651 06A2  
                     l572 0FE8                       l564 0F92                       l556 0F55  
                     l548 0E9E                       l636 0302                       l628 0398  
                     l660 06F2                       l652 06B7                       l573 0FEF  
                     l565 0F91                       l557 0F63                       l549 0EA4  
                     l581 03B6                       l637 033C                       l629 02DA  
                     l661 06FE                       l653 06D3                       l574 0FF3  
                     l566 0FCE                       l558 0F6A                       l590 0666  
                     l582 03D1                       l638 033B                       l662 0721  
                     l654 06B8                       l646 0683                       l575 0FFF  
                     l567 0FCE                       l559 0F6D                       l591 045B  
                     l583 03CD                       l639 0354                       l655 06DA  
                     l647 068B                       l568 0FCD                       l592 0538  
                     l584 03DB                       l656 06E7                       l648 069D  
                     l569 0FE9                       l593 04AE                       l585 03F6  
                     l665 07D4                       l657 06DB                       l649 072A  
                     l594 04E4                       l586 0411                       l666 07DE  
                     l595 04D5                       l587 040D                       l667 07ED  
                     l659 06F2                       l596 052F                       l588 041A  
                     l668 07F2                       l597 053F                       l589 0440  
                     l598 0549                       l599 0575              __CFG_CPD$OFF 0000  
                     _ISR 09FC                       indf 0000              ___flmul@aexp 0054  
            ___flmul@bexp 0059              ___flmul@sign 0053              ___flmul@temp 005E  
            ___flmul@prod 005A              __CFG_LVP$OFF 0000                      ?_ISR 0070  
            ___fltol@exp1 0077                      l2200 005A                      l2130 07CA  
                    l2210 0070                      l2202 0060                      l2140 07ED  
                    l2132 07CC                      l2300 0349                      l2220 008F  
                    l2212 0079                      l2204 0064                      l1500 0A81  
                    l2142 07F2                      l2134 07D4                      l2310 037D  
                    l2302 0354                      l2230 00D3                      l2222 0098  
                    l2214 007B                      l2206 0066                      l2150 074A  
                    l1510 0A9C                      l1502 0A84                      l1600 0D7B  
                    l2136 07D8                      l2312 0381                      l2304 0363  
                    l2240 015C                      l2232 00EF                      l2224 0099  
                    l2216 0084                      l2208 006B                      l2160 076E  
                    l2152 075F                      l2144 072B                      l2320 066A  
                    l1520 0AB8                      l1512 0AA5                      l1504 0A8D  
                    l1440 0A19                      l1610 0D8F                      l1602 0D81  
                    l2138 07E7                      l2314 0383                      l2306 036D  
                    l2250 01CF                      l2242 016C                      l2234 011B  
                    l2226 00A9                      l2218 0089                      l2170 0799  
                    l2162 0775                      l2154 0760                      l2146 0740  
                    l2330 069C                      l2322 066F                      l1514 0AA8  
                    l1506 0A90                      l1530 09E0                      l1442 0A1C  
                    l1434 0A0E                      l1522 09C9                      l1700 0EB3  
                    l1612 0D94                      l1620 0DA5                      l1604 0D83  
                    l2316 038F                      l2308 036F                      l2260 027C  
                    l2252 01EC                      l2244 0189                      l2236 0137  
                    l2228 00B6                      l2180 0024                      l1540 09FB  
                    l2172 07A2                      l2164 077E                      l2156 0768  
                    l2148 0749                      l2340 06BC                      l2332 069D  
                    l2324 0673                      l1516 0AAF                      l1508 0A99  
                    l1532 09E8                      l1436 0A15                      l1460 0A23  
                    l1444 09D6                      l1524 07F3                      l1702 0EC9  
                    l1710 0F2F                      l1630 0DC4                      l1622 0DB3  
                    l1614 0D99                      l1606 0D89                      l2318 0398  
                    l2270 02C8                      l2262 02A4                      l2254 0219  
                    l2246 0199                      l2238 0153                      l2190 003C  
                    l2182 002B                      l1534 09ED                      l2174 07A4  
                    l2166 0780                      l2158 076A                      l2350 06F6  
                    l2342 06CA                      l2334 06A2                      l2326 0683  
                    l1518 0AB7                      l1438 0A17                      l1470 0A2E  
                    l1462 0A27                      l1526 07F8                      l1720 0F5E  
                    l1712 0F45                      l1704 0F18                      l1640 0DD8  
                    l1632 0DC8                      l1624 0DB7                      l1616 0DA2  
                    l1608 0D8D                      l1800 03F6                      l2280 02E0  
                    l2272 02CA                      l2264 02AD                      l2256 0229  
                    l2248 01B6                      l2192 0041                      l2184 0031  
                    l1536 09F7                      l2176 07B6                      l2168 0793  
                    l2360 0721                      l2352 0700                      l2344 06DB  
                    l2336 06B0                      l2328 0693                      l1480 0A35  
                    l1472 0A2F                      l1464 0A2A                      l1528 07FC  
                    l1730 0F72                      l1722 0F62                      l1714 0F4A  
                    l1706 0F1A                      l1650 0DEC                      l1642 0DDC  
                    l1634 0DCC                      l1626 0DBC                      l1618 0DA3  
                    l1802 03FD                      l1810 0411                      l2290 0309  
                    l2282 02E4                      l2274 02D3                      l2266 02BB  
                    l2258 0256                      l2194 004A                      l2186 0035  
                    l1538 09FA                      l2178 07BB                      l2362 072A  
                    l2354 0716                      l2346 06E7                      l2338 06B8  
                    l1490 0A5C                      l1482 0A3F                      l1474 0A30  
                    l1466 0A2B                      l2370 0AED                      l1740 0F87  
                    l1724 0F67                      l1716 0F53                      l1732 0F76  
                    l1708 0F1F                      l1660 0E16                      l1652 0DF0  
                    l1644 0DE0                      l1636 0DD0                      l1628 0DC0  
                    l1580 0D4B                      l1900 0626                      l1812 0422  
                    l1820 0440                      l1804 0402                      l2292 0317  
                    l2284 02F8                      l2268 02C4                      l2276 02DA  
                    l2196 004C                      l2188 0037                      l2356 071B  
                    l2348 06EB                      l1492 0A61                      l1484 0A46  
                    l1476 0A33                      l1468 0A2C                      l2380 0C04  
                    l2372 0AF9                      l2364 0ABA                      l1750 0FAA  
                    l1742 0F8E                      l1726 0F6A                      l1718 0F55  
                    l1734 0F7C                      l1670 0E49                      l1662 0E37  
                    l1654 0DF4                      l1646 0DE4                      l1638 0DD4  
                    l1590 0D61                      l1582 0D51                      l1910 065D  
                    l1902 0630                      l1830 0498                      l1822 0447  
                    l1814 042E                      l1806 040D                      l2294 031B  
                    l2286 02FF                      l2278 02DF                      l2198 0055  
                    l2358 071F                      l1494 0A6A                      l1486 0A4D  
                    l1478 0A34                      l2390 0D1E                      l2382 0C72  
                    l2374 0B03                      l2366 0ADD                      l1760 0FE6  
                    l1752 0FC8                      l1744 0F93                      l1736 0F7D  
                    l1728 0F6D                      l1680 0E72                      l1672 0E52  
                    l1664 0E40                      l1648 0DE8                      l1656 0DF9  
                    l1592 0D6A                      l1584 0D55                      l1912 0666  
                    l1904 063D                      l1840 04CB                      l1832 04A2  
                    l1824 045A                      l1816 0436                      l1808 040F  
                    l2296 0334                      l2288 0304                      l1496 0A73  
                    l1488 0A52                      l2392 0D24                      l2384 0CEE  
                    l2376 0B60                      l2368 0AE7                      l1770 0FFE  
                    l1762 0FE9                      l1754 0FD3                      l1746 0F98  
                    l1738 0F81                      l1690 0E9B                      l1682 0E73  
                    l1666 0E43                      l1674 0E57                      l1658 0DFA  
                    l1594 0D6B                      l1586 0D57                      l1578 0D44  
                    l1906 0641                      l1850 0506                      l1842 04D1  
                    l1834 04AC                      l1826 045B                      l1818 043F  
                    l2298 033C                      l1498 0A78                      l2394 0D39  
                    l2386 0D03                      l2378 0BEF                      l1764 0FED  
                    l1756 0FD9                      l1748 0FA6                      l1692 0E9E  
                    l1684 0E8A                      l1676 0E64                      l1668 0E47  
                    l1588 0D5C                      l1596 0D6D                      l1908 0645  
                    l1860 054A                      l1852 052F                      l1844 04D5  
                    l1836 04AE                      l1828 0480                      l1780 03B6  
                    l1772 0399                      l2388 0D09                      l1766 0FEF  
                    l1758 0FE1                      l1694 0EA2                      l1686 0E8E  
                    l1678 0E69                      l1598 0D76                      l1862 0554  
                    l1870 0575                      l1838 04B3                      l1846 04E4  
                    l1854 0538                      l1782 03BD                      l1790 03D1  
                    l1774 03A2                      l1768 0FFA                      l1696 0EA4  
                    l1688 0E92                      l1880 05AE                      l1872 057C  
                    l1864 055A                      l1856 053F                      l1848 0505  
                    l1792 03DB                      l1784 03C2                      l1776 03AC  
                    l1698 0EAD                      l1890 05E9                      l1882 05B5  
                    l1874 057F                      l1866 055E                      l1858 0547  
                    l1794 03E2                      l1786 03CD                      l1778 03B2  
                    l1884 05BC                      l1892 05F3                      l1876 0583  
                    l1868 056C                      l1796 03EC                      l1788 03CF  
                    l1894 0602                      l1886 05CC                      l1878 05A5  
                    l1798 03F2                      l1896 0613                      l1888 05D0  
                    l1898 0622                      u2010 0EC9                      u2011 0EC8  
                    u2100 0F72                      u2020 0EEF                      u2101 0F71  
                    u2021 0EF0                      u2013 0EC5                      u2005 0EA6  
                    u2110 0F7A                      u2030 0F01                      u2022 0EF5  
                    u2111 0F79                      u2031 0F02                      u2023 0EF6  
                    u2200 0FD8                      u2120 0F81                      u2040 0F1F  
                    u2032 0F07                      u2201 0FD7                      u2121 0F80  
                    u2041 0F1E                      u2033 0F08                      u2210 0FE6  
                    u2130 0F87                      u2050 0F45                      u2211 0FE5  
                    u2131 0F86                      u2051 0F44                      u2220 0FED  
                    u2140 0F8E                      u2060 0F4A                      u2300 0422  
                    u3100 076E                      u2221 0FEC                      u2141 0F8D  
                    u2061 0F49                      u2301 0421                      u3101 076D  
                    u2230 0FFE                      u2150 0F98                      u2310 0447  
                    u3110 0775                      u2231 0FFD                      u2151 0F97  
                    u2311 0446                      u3111 0774                      u2160 0FAA  
                    u2080 0F62                      u2400 0547                      u2320 04B3  
                    u2240 03B2                      u3200 0041                      u1600 0A73  
                    u2161 0FA9                      u2081 0F61                      u2401 0546  
                    u2321 04B2                      u2241 03B1                      u3201 0040  
                    u1601 0A72                      u2170 0FB9                      u2090 0F67  
                    u2250 03BD                      u3050 07D8                      u3210 0064  
                    u3130 0791                      u1610 0A81                      u1530 0A15  
                    u2091 0F66                      u2075 0F57                      u2251 03BC  
                    u3051 07D7                      u3211 0063                      u3131 0790  
                    u1611 0A80                      u1531 0A14                      u2180 0FC8  
                    u2500 05DF                      u2420 055A                      u2260 03C2  
                    u3220 006B                      u3140 0799                      u1620 0A8D  
                    u1540 09DD                      u2181 0FC7                      u2421 0559  
                    u2261 03C1                      u3221 006A                      u3141 0798  
                    u3125 0781                      u1621 0A8C                      u1541 09DC  
                    u2190 0FD3                      u2510 0602                      u2350 04D1  
                    u2270 03F2                      u3070 07EC                      u3230 0070  
                    u1630 0A99                      u2191 0FD2                      u2175 0FB4  
                    u2511 0601                      u2415 054D                      u2351 04D0  
                    u2335 04B7                      u2271 03F1                      u3071 07EB  
                    u3311 017B                      u3231 006F                      u1631 0A98  
                    u1800 0D61                      u2520 0622                      u2440 057B  
                    u2280 03FD                      u3312 0182                      u3240 0089  
                    u3160 07B4                      u3080 0740                      u1640 0AA5  
                    u1801 0D60                      u2521 0621                      u2505 05DA  
                    u2441 057A                      u2345 04C4                      u2281 03FC  
                    u3065 07DF                      u3401 0296                      u3321 01A8  
                    u3313 0189                      u3305 0155                      u3241 0088  
                    u3161 07B3                      u3081 073F                      u1641 0AA4  
                    u1810 0D81                      u2530 0641                      u2450 0583  
                    u2370 0505                      u2290 0402                      u3402 029D  
                    u3322 01AF                      u3250 008E                      u3170 07BB  
                    u3090 0758                      u1650 0AAF                      u1811 0D80  
                    u2531 0640                      u2515 05FE                      u2451 0582  
                    u2435 0561                      u2371 0504                      u2291 0401  
                    u3403 02A4                      u3323 01B6                      u3251 008D  
                    u3171 07BA                      u3155 07A6                      u1651 0AAE  
                    u1900 0E37                      u1820 0D8D                      u2460 05A5  
                    u2380 052A                      u3500 031B                      u3180 0035  
                    u1580 0A52                      u1660 09E7                      u1901 0E36  
                    u1821 0D8C                      u2525 061E                      u2461 05A4  
                    u2365 04D8                      u3501 031A                      u3341 01DE  
                    u3261 00E1                      u3181 0034                      u1581 0A51  
                    u1661 09E6                      u1910 0E47                      u1830 0D94  
                    u2470 05AE                      u2390 053E                      u3510 032A  
                    u3430 02C8                      u3342 01E5                      u3262 00E8  
                    u3190 003C                      u1670 09F7                      u1590 0A61  
                    u1911 0E46                      u1831 0D93                      u2471 05AD  
                    u2391 053D                      u2375 0501                      u3431 02C7  
                    u3415 02A6                      u3351 020B                      u3343 01EC  
                    u3335 01B8                      u3271 00FD                      u3263 00EF  
                    u3191 003B                      u1671 09F6                      u3095 0753  
                    u1591 0A60                      u1840 0D99                      u2480 05BC  
                    u3520 0349                      u3352 0212                      u3272 0104  
                    u1841 0D98                      u2481 05BB                      u2385 0513  
                    u3521 0348                      u3425 02BD                      u3361 0238  
                    u3353 0219                      u3281 0129                      u3273 010B  
                    u1930 0E5F                      u1850 0DB3                      u2490 05D0  
                    u2386 0516                      u3530 0363                      u3450 02DE  
                    u3370 0262                      u3362 023F                      u3282 0130  
                    u3610 06D9                      u1931 0E5E                      u1851 0DB2  
                    u2491 05CF                      u2387 051D                      u3531 0362  
                    u3515 0325                      u3451 02DD                      u3363 0246  
                    u3291 0145                      u3283 0137                      u3611 06D8  
                    u1940 0E64                      u1860 0DB7                      u1780 0D55  
                    u2388 0520                      u3540 0381                      u3460 02E4  
                    u3292 014C                      u1941 0E63                      u1925 0E4B  
                    u1861 0DB6                      u1781 0D54                      u2389 0527  
                    u3541 0380                      u3525 0345                      u3461 02E3  
                    u3445 02CC                      u3381 026E                      u3293 0153  
                    u3605 06CB                      u1950 0E69                      u1870 0E16  
                    u1790 0D5C                      u3470 02F8                      u3390 028A  
                    u3382 0275                      u3630 06EB                      u3550 066F  
                    u1951 0E68                      u1871 0E15                      u1791 0D5B  
                    u3535 035F                      u3471 02F7                      u3383 027C  
                    u3375 025D                      u3631 06EA                      u3551 066E  
                    u1880 0E21                      u3480 02FF                      u3640 06F1  
                    u3560 0673                      u1961 0E7C                      u1881 0E1F  
                    u3481 02FE                      u3641 06F0                      u3625 06DF  
                    u3561 0672                      u1970 0E8E                      u1962 0E83  
                    u1890 0E22                      u3490 0309                      u3650 06F6  
                    u3570 0693                      u1971 0E8D                      u1963 0E8A  
                    u1875 0E12                      u3491 0308                      u3395 0285  
                    u3651 06F5                      u3571 0692                      u3707 0AFF  
                    u1980 0E92                      u3660 070B                      u1981 0E91  
                    u1990 0EA2                      u3670 071B                      u3590 06B6  
                    u1991 0EA1                      u3671 071A                      u3591 06B5  
                    u3680 071F                      u3681 071E                      u3665 0706  
                    u3585 06A7                      i1l65 0A06                      u3697 0AE3  
                    i1l66 0A06              __CFG_WRT$OFF 0000                      _dec1 006E  
                    _dec2 006D                      _main 0ABA                      btemp 007E  
                    start 000C             __CFG_IESO$OFF 0000           ___fldiv@new_exp 00A5  
                   ??_ISR 0070             ___fltol@sign1 0076           __end_of___fladd 1000  
                   ?_main 0070           __end_of___fldiv 0667           __end_of___flneg 09FC  
           __CFG_WDTE$OFF 0000           __end_of___flmul 0399           __end_of___fltol 07C7  
                   _ANSEL 0188                     _RCREG 001A                     _SPBRG 0099  
                   _PORTB 0006                     _PORTD 0008                     _TRISA 0085  
                   _TRISB 0086                     _TRISD 0088                     _TXREG 0019  
          __CFG_FCMEN$OFF 0000         initUSART@baudrate 0072                     _setup 0A23  
          __CFG_BOREN$OFF 0000                     pclath 000A           __end_of_spiInit 0A23  
         __end_of_spiRead 07FD                     status 0003                     wtemp0 007E  
          __CFG_MCLRE$OFF 0000           __initialization 000F              __end_of_main 0D44  
          initUSART@rcint 0075            initUSART@txint 0074                    ??_main 00AD  
       initUSART@syncrono 0076                    ?_setup 0070                    _ANSELH 0189  
                  i1l1390 09FC                    i1l1392 0A02                    i1l1394 0A03  
                  u152_20 0A02                    u152_21 0A01                    _SPBRGH 009A  
                  _TRISC2 043A                    _TRISC3 043B                    _TRISC5 043D  
                  _SSPCON 0014                    _SSPBUF 0013          __end_of___xxtofl 072B  
          __CFG_PWRTE$OFF 0000                 ??___fladd 0036                 ??___fldiv 0068  
               ??___flneg 0076                 ??___flmul 004E                 ??___fltol 0020  
                  _float1 00BD                    _float2 00B9             sendUSART@data 0072  
      __size_of__Umul8_16 002C                    saved_w 007E          __end_of_spiWrite 09CE  
               ??_spiInit 0075                 ??_spiRead 0072              ___xxtofl@arg 0026  
            ___xxtofl@exp 0025              ___xxtofl@val 0072   __end_of__initialization 0020  
              ___flneg@f1 002A                ___fltol@f1 0072            __pcstackCOMMON 0070  
           __end_of_setup 0A3F                   ??_setup 0076                __pbssBANK0 006D  
              __pbssBANK1 00B1        __size_of_initUSART 007B         __end_of__Umul8_16 07F3  
              __pmaintext 0ABA        __size_of_sendUSART 000E                __pintentry 0004  
 __size_of_spiReceiveWait 0009                 ?___xxtofl 0072                   _SSPSTAT 0094  
               ?_spiWrite 0070                   ___fladd 0D44                   ___fldiv 0399  
                 ___flneg 09ED                   ___flmul 0024                   ___fltol 072B  
       __end_of_initUSART 0ABA                   __ptext1 09C8                   __ptext2 07F3  
                 __ptext3 09D6                   __ptext4 0A23                   __ptext5 0A0D  
                 __ptext6 09DF                   __ptext7 0A3F                   __ptext8 0667  
                 __ptext9 072B              __size_of_ISR 0011                   _entero1 0079  
                 _entero2 0078                ??___xxtofl 0020                   _spiInit 0A0D  
                 _spiRead 07F3                   _sensor1 007A                   _sensor2 006F  
       __end_of_sendUSART 09ED                   clrloop0 09CF      end_of_initialization 0020  
               _RCSTAbits 0018                ??_spiWrite 0072                 _PORTAbits 0005  
               _PORTCbits 0007               ___fladd@grs 0045             ___xxtofl@sign 0024  
               _TRISCbits 0087               ___fldiv@grs 00A7               ___fldiv@rem 00A0  
             spiWrite@dat 0072               ___flmul@grs 0055                 _TXSTAbits 0098  
          _spiReceiveWait 09D6               _BAUDCTLbits 0187       start_initialization 000F  
             __end_of_ISR 0A0D  __CFG_FOSC$INTRC_NOCLKOUT 0000    __end_of_spiReceiveWait 09DF  
               __Umul8_16 07C7                 ___fladd@a 0032                 ___fladd@b 002E  
               ___fldiv@a 0060                 ___fldiv@b 0064                 ___flmul@a 004A  
               ___flmul@b 0046               __pbssCOMMON 0078                 ___latbits 0002  
           __pcstackBANK0 0020             __pcstackBANK1 00A0         __size_of___xxtofl 00C4  
         ?_spiReceiveWait 0070                  ?___fladd 002E                  ?___fldiv 0060  
                ?___flneg 002A                  ?___flmul 0046                  ?___fltol 0072  
              ?__Umul8_16 0072         __size_of_spiWrite 0006                 _initUSART 0A3F  
                ?_spiInit 0072                  ?_spiRead 0070            __size_of_setup 001C  
    spiInit@sTransmitEdge 0074                 _sendUSART 09DF         interrupt_function 0004  
               clear_ram0 09CE                  _PIE1bits 008C        spiInit@sDataSample 0072  
                _PIR1bits 000C                ?_initUSART 0072                ?_sendUSART 0070  
             ??__Umul8_16 0074          __size_of___fladd 02BC          __size_of___fldiv 02CE  
        __size_of___flneg 000F          __size_of___flmul 0375          __size_of___fltol 009C  
                ___xxtofl 0667                  __ptext10 09ED                  __ptext11 0024  
                __ptext12 07C7                  __ptext13 0399                  __ptext14 0D44  
                __ptext15 09FC          __size_of_spiInit 0016          __size_of_spiRead 000A  
       __CFG_BOR4V$BOR40V 0000             __size_of_main 028A                  _sensorF1 00B5  
                _sensorF2 00B1                  _spiWrite 09C8              spiInit@sType 0075  
       spiInit@sClockIdle 0073                _INTCONbits 000B               ??_initUSART 0077  
                intlevel1 0000               ??_sendUSART 0072          ??_spiReceiveWait 0072  
  __Umul8_16@multiplicand 0072             ___fladd@signs 0042              ___fladd@aexp 0043  
            ___fladd@bexp 0044      __Umul8_16@multiplier 0024         __Umul8_16@product 0020  
